ARM GAS  /tmp/cco3cRqd.s 			page 1


   1              		.cpu cortex-m7
   2              		.arch armv7e-m
   3              		.fpu fpv5-d16
   4              		.eabi_attribute 28, 1
   5              		.eabi_attribute 20, 1
   6              		.eabi_attribute 21, 1
   7              		.eabi_attribute 23, 3
   8              		.eabi_attribute 24, 1
   9              		.eabi_attribute 25, 1
  10              		.eabi_attribute 26, 1
  11              		.eabi_attribute 30, 1
  12              		.eabi_attribute 34, 1
  13              		.eabi_attribute 18, 4
  14              		.file	"can.c"
  15              		.text
  16              	.Ltext0:
  17              		.cfi_sections	.debug_frame
  18              		.file 1 "Core/Src/can.c"
  19              		.section	.text.MX_CAN1_Init,"ax",%progbits
  20              		.align	1
  21              		.global	MX_CAN1_Init
  22              		.syntax unified
  23              		.thumb
  24              		.thumb_func
  26              	MX_CAN1_Init:
  27              	.LFB144:
   1:Core/Src/can.c **** /* USER CODE BEGIN Header */
   2:Core/Src/can.c **** /**
   3:Core/Src/can.c ****  ******************************************************************************
   4:Core/Src/can.c ****  * @file    can.c
   5:Core/Src/can.c ****  * @brief   This file provides code for the configuration
   6:Core/Src/can.c ****  *          of the CAN instances.
   7:Core/Src/can.c ****  ******************************************************************************
   8:Core/Src/can.c ****  * @attention
   9:Core/Src/can.c ****  *
  10:Core/Src/can.c ****  * Copyright (c) 2025 STMicroelectronics.
  11:Core/Src/can.c ****  * All rights reserved.
  12:Core/Src/can.c ****  *
  13:Core/Src/can.c ****  * This software is licensed under terms that can be found in the LICENSE file
  14:Core/Src/can.c ****  * in the root directory of this software component.
  15:Core/Src/can.c ****  * If no LICENSE file comes with this software, it is provided AS-IS.
  16:Core/Src/can.c ****  *
  17:Core/Src/can.c ****  ******************************************************************************
  18:Core/Src/can.c ****  */
  19:Core/Src/can.c **** /* USER CODE END Header */
  20:Core/Src/can.c **** /* Includes ------------------------------------------------------------------*/
  21:Core/Src/can.c **** 
  22:Core/Src/can.c **** #include "can.h"
  23:Core/Src/can.c **** #include "inverter_broadcast.h"
  24:Core/Src/can.c **** #include "inverter_command.h"
  25:Core/Src/can.c **** #include "stdio.h"
  26:Core/Src/can.c **** #include "stm32f7xx_hal_can.h"
  27:Core/Src/can.c **** 
  28:Core/Src/can.c **** /* USER CODE BEGIN 0 */
  29:Core/Src/can.c **** 
  30:Core/Src/can.c **** /* USER CODE END 0 */
  31:Core/Src/can.c **** 
ARM GAS  /tmp/cco3cRqd.s 			page 2


  32:Core/Src/can.c **** CAN_HandleTypeDef hcan1;
  33:Core/Src/can.c **** 
  34:Core/Src/can.c **** /* CAN1 init function */
  35:Core/Src/can.c **** void MX_CAN1_Init(void) {
  28              		.loc 1 35 25 view -0
  29              		.cfi_startproc
  30              		@ args = 0, pretend = 0, frame = 0
  31              		@ frame_needed = 0, uses_anonymous_args = 0
  32 0000 08B5     		push	{r3, lr}
  33              	.LCFI0:
  34              		.cfi_def_cfa_offset 8
  35              		.cfi_offset 3, -8
  36              		.cfi_offset 14, -4
  36:Core/Src/can.c **** 
  37:Core/Src/can.c ****   /* USER CODE BEGIN CAN1_Init 0 */
  38:Core/Src/can.c **** 
  39:Core/Src/can.c ****   /* USER CODE END CAN1_Init 0 */
  40:Core/Src/can.c **** 
  41:Core/Src/can.c ****   /* USER CODE BEGIN CAN1_Init 1 */
  42:Core/Src/can.c **** 
  43:Core/Src/can.c ****   /* USER CODE END CAN1_Init 1 */
  44:Core/Src/can.c ****   hcan1.Instance = CAN1;
  37              		.loc 1 44 3 view .LVU1
  38              		.loc 1 44 18 is_stmt 0 view .LVU2
  39 0002 0D48     		ldr	r0, .L5
  40 0004 0D4B     		ldr	r3, .L5+4
  41 0006 0360     		str	r3, [r0]
  45:Core/Src/can.c ****   hcan1.Init.Prescaler = 16;
  42              		.loc 1 45 3 is_stmt 1 view .LVU3
  43              		.loc 1 45 24 is_stmt 0 view .LVU4
  44 0008 1023     		movs	r3, #16
  45 000a 4360     		str	r3, [r0, #4]
  46:Core/Src/can.c ****   hcan1.Init.Mode = CAN_MODE_NORMAL;
  46              		.loc 1 46 3 is_stmt 1 view .LVU5
  47              		.loc 1 46 19 is_stmt 0 view .LVU6
  48 000c 0023     		movs	r3, #0
  49 000e 8360     		str	r3, [r0, #8]
  47:Core/Src/can.c ****   hcan1.Init.SyncJumpWidth = CAN_SJW_1TQ;
  50              		.loc 1 47 3 is_stmt 1 view .LVU7
  51              		.loc 1 47 28 is_stmt 0 view .LVU8
  52 0010 C360     		str	r3, [r0, #12]
  48:Core/Src/can.c ****   hcan1.Init.TimeSeg1 = CAN_BS1_6TQ;
  53              		.loc 1 48 3 is_stmt 1 view .LVU9
  54              		.loc 1 48 23 is_stmt 0 view .LVU10
  55 0012 4FF4A022 		mov	r2, #327680
  56 0016 0261     		str	r2, [r0, #16]
  49:Core/Src/can.c ****   hcan1.Init.TimeSeg2 = CAN_BS2_5TQ;
  57              		.loc 1 49 3 is_stmt 1 view .LVU11
  58              		.loc 1 49 23 is_stmt 0 view .LVU12
  59 0018 4FF48002 		mov	r2, #4194304
  60 001c 4261     		str	r2, [r0, #20]
  50:Core/Src/can.c ****   hcan1.Init.TimeTriggeredMode = DISABLE;
  61              		.loc 1 50 3 is_stmt 1 view .LVU13
  62              		.loc 1 50 32 is_stmt 0 view .LVU14
  63 001e 0376     		strb	r3, [r0, #24]
  51:Core/Src/can.c ****   hcan1.Init.AutoBusOff = DISABLE;
  64              		.loc 1 51 3 is_stmt 1 view .LVU15
ARM GAS  /tmp/cco3cRqd.s 			page 3


  65              		.loc 1 51 25 is_stmt 0 view .LVU16
  66 0020 4376     		strb	r3, [r0, #25]
  52:Core/Src/can.c ****   hcan1.Init.AutoWakeUp = DISABLE;
  67              		.loc 1 52 3 is_stmt 1 view .LVU17
  68              		.loc 1 52 25 is_stmt 0 view .LVU18
  69 0022 8376     		strb	r3, [r0, #26]
  53:Core/Src/can.c ****   hcan1.Init.AutoRetransmission = DISABLE;
  70              		.loc 1 53 3 is_stmt 1 view .LVU19
  71              		.loc 1 53 33 is_stmt 0 view .LVU20
  72 0024 C376     		strb	r3, [r0, #27]
  54:Core/Src/can.c ****   hcan1.Init.ReceiveFifoLocked = DISABLE;
  73              		.loc 1 54 3 is_stmt 1 view .LVU21
  74              		.loc 1 54 32 is_stmt 0 view .LVU22
  75 0026 0377     		strb	r3, [r0, #28]
  55:Core/Src/can.c ****   hcan1.Init.TransmitFifoPriority = DISABLE;
  76              		.loc 1 55 3 is_stmt 1 view .LVU23
  77              		.loc 1 55 35 is_stmt 0 view .LVU24
  78 0028 4377     		strb	r3, [r0, #29]
  56:Core/Src/can.c ****   if (HAL_CAN_Init(&hcan1) != HAL_OK) {
  79              		.loc 1 56 3 is_stmt 1 view .LVU25
  80              		.loc 1 56 7 is_stmt 0 view .LVU26
  81 002a FFF7FEFF 		bl	HAL_CAN_Init
  82              	.LVL0:
  83              		.loc 1 56 6 discriminator 1 view .LVU27
  84 002e 00B9     		cbnz	r0, .L4
  85              	.L1:
  57:Core/Src/can.c ****     Error_Handler();
  58:Core/Src/can.c ****   }
  59:Core/Src/can.c ****   /* USER CODE BEGIN CAN1_Init 2 */
  60:Core/Src/can.c **** 
  61:Core/Src/can.c ****   /* USER CODE END CAN1_Init 2 */
  62:Core/Src/can.c **** }
  86              		.loc 1 62 1 view .LVU28
  87 0030 08BD     		pop	{r3, pc}
  88              	.L4:
  57:Core/Src/can.c ****     Error_Handler();
  89              		.loc 1 57 5 is_stmt 1 view .LVU29
  90 0032 FFF7FEFF 		bl	Error_Handler
  91              	.LVL1:
  92              		.loc 1 62 1 is_stmt 0 view .LVU30
  93 0036 FBE7     		b	.L1
  94              	.L6:
  95              		.align	2
  96              	.L5:
  97 0038 00000000 		.word	hcan1
  98 003c 00640040 		.word	1073767424
  99              		.cfi_endproc
 100              	.LFE144:
 102              		.section	.text.HAL_CAN_MspInit,"ax",%progbits
 103              		.align	1
 104              		.global	HAL_CAN_MspInit
 105              		.syntax unified
 106              		.thumb
 107              		.thumb_func
 109              	HAL_CAN_MspInit:
 110              	.LVL2:
 111              	.LFB145:
ARM GAS  /tmp/cco3cRqd.s 			page 4


  63:Core/Src/can.c **** 
  64:Core/Src/can.c **** void HAL_CAN_MspInit(CAN_HandleTypeDef *canHandle) {
 112              		.loc 1 64 52 is_stmt 1 view -0
 113              		.cfi_startproc
 114              		@ args = 0, pretend = 0, frame = 32
 115              		@ frame_needed = 0, uses_anonymous_args = 0
 116              		.loc 1 64 52 is_stmt 0 view .LVU32
 117 0000 00B5     		push	{lr}
 118              	.LCFI1:
 119              		.cfi_def_cfa_offset 4
 120              		.cfi_offset 14, -4
 121 0002 89B0     		sub	sp, sp, #36
 122              	.LCFI2:
 123              		.cfi_def_cfa_offset 40
  65:Core/Src/can.c **** 
  66:Core/Src/can.c ****   GPIO_InitTypeDef GPIO_InitStruct = {0};
 124              		.loc 1 66 3 is_stmt 1 view .LVU33
 125              		.loc 1 66 20 is_stmt 0 view .LVU34
 126 0004 0023     		movs	r3, #0
 127 0006 0393     		str	r3, [sp, #12]
 128 0008 0493     		str	r3, [sp, #16]
 129 000a 0593     		str	r3, [sp, #20]
 130 000c 0693     		str	r3, [sp, #24]
 131 000e 0793     		str	r3, [sp, #28]
  67:Core/Src/can.c ****   if (canHandle->Instance == CAN1) {
 132              		.loc 1 67 3 is_stmt 1 view .LVU35
 133              		.loc 1 67 16 is_stmt 0 view .LVU36
 134 0010 0268     		ldr	r2, [r0]
 135              		.loc 1 67 6 view .LVU37
 136 0012 174B     		ldr	r3, .L11
 137 0014 9A42     		cmp	r2, r3
 138 0016 02D0     		beq	.L10
 139              	.LVL3:
 140              	.L7:
  68:Core/Src/can.c ****     /* USER CODE BEGIN CAN1_MspInit 0 */
  69:Core/Src/can.c **** 
  70:Core/Src/can.c ****     /* USER CODE END CAN1_MspInit 0 */
  71:Core/Src/can.c ****     /* CAN1 clock enable */
  72:Core/Src/can.c ****     __HAL_RCC_CAN1_CLK_ENABLE();
  73:Core/Src/can.c **** 
  74:Core/Src/can.c ****     __HAL_RCC_GPIOD_CLK_ENABLE();
  75:Core/Src/can.c ****     /**CAN1 GPIO Configuration
  76:Core/Src/can.c ****     PD0     ------> CAN1_RX
  77:Core/Src/can.c ****     PD1     ------> CAN1_TX
  78:Core/Src/can.c ****     */
  79:Core/Src/can.c ****     GPIO_InitStruct.Pin = GPIO_PIN_0 | GPIO_PIN_1;
  80:Core/Src/can.c ****     GPIO_InitStruct.Mode = GPIO_MODE_AF_PP;
  81:Core/Src/can.c ****     GPIO_InitStruct.Pull = GPIO_NOPULL;
  82:Core/Src/can.c ****     GPIO_InitStruct.Speed = GPIO_SPEED_FREQ_VERY_HIGH;
  83:Core/Src/can.c ****     GPIO_InitStruct.Alternate = GPIO_AF9_CAN1;
  84:Core/Src/can.c ****     HAL_GPIO_Init(GPIOD, &GPIO_InitStruct);
  85:Core/Src/can.c **** 
  86:Core/Src/can.c ****     /* CAN1 interrupt Init */
  87:Core/Src/can.c ****     HAL_NVIC_SetPriority(CAN1_RX0_IRQn, 0, 0);
  88:Core/Src/can.c ****     HAL_NVIC_EnableIRQ(CAN1_RX0_IRQn);
  89:Core/Src/can.c ****     /* USER CODE BEGIN CAN1_MspInit 1 */
  90:Core/Src/can.c **** 
ARM GAS  /tmp/cco3cRqd.s 			page 5


  91:Core/Src/can.c ****     /* USER CODE END CAN1_MspInit 1 */
  92:Core/Src/can.c ****   }
  93:Core/Src/can.c **** }
 141              		.loc 1 93 1 view .LVU38
 142 0018 09B0     		add	sp, sp, #36
 143              	.LCFI3:
 144              		.cfi_remember_state
 145              		.cfi_def_cfa_offset 4
 146              		@ sp needed
 147 001a 5DF804FB 		ldr	pc, [sp], #4
 148              	.LVL4:
 149              	.L10:
 150              	.LCFI4:
 151              		.cfi_restore_state
  72:Core/Src/can.c **** 
 152              		.loc 1 72 5 is_stmt 1 view .LVU39
 153              	.LBB2:
  72:Core/Src/can.c **** 
 154              		.loc 1 72 5 view .LVU40
  72:Core/Src/can.c **** 
 155              		.loc 1 72 5 view .LVU41
 156 001e 03F5EA33 		add	r3, r3, #119808
 157 0022 1A6C     		ldr	r2, [r3, #64]
 158 0024 42F00072 		orr	r2, r2, #33554432
 159 0028 1A64     		str	r2, [r3, #64]
  72:Core/Src/can.c **** 
 160              		.loc 1 72 5 view .LVU42
 161 002a 1A6C     		ldr	r2, [r3, #64]
 162 002c 02F00072 		and	r2, r2, #33554432
 163 0030 0192     		str	r2, [sp, #4]
  72:Core/Src/can.c **** 
 164              		.loc 1 72 5 view .LVU43
 165 0032 019A     		ldr	r2, [sp, #4]
 166              	.LBE2:
  72:Core/Src/can.c **** 
 167              		.loc 1 72 5 view .LVU44
  74:Core/Src/can.c ****     /**CAN1 GPIO Configuration
 168              		.loc 1 74 5 view .LVU45
 169              	.LBB3:
  74:Core/Src/can.c ****     /**CAN1 GPIO Configuration
 170              		.loc 1 74 5 view .LVU46
  74:Core/Src/can.c ****     /**CAN1 GPIO Configuration
 171              		.loc 1 74 5 view .LVU47
 172 0034 1A6B     		ldr	r2, [r3, #48]
 173 0036 42F00802 		orr	r2, r2, #8
 174 003a 1A63     		str	r2, [r3, #48]
  74:Core/Src/can.c ****     /**CAN1 GPIO Configuration
 175              		.loc 1 74 5 view .LVU48
 176 003c 1B6B     		ldr	r3, [r3, #48]
 177 003e 03F00803 		and	r3, r3, #8
 178 0042 0293     		str	r3, [sp, #8]
  74:Core/Src/can.c ****     /**CAN1 GPIO Configuration
 179              		.loc 1 74 5 view .LVU49
 180 0044 029B     		ldr	r3, [sp, #8]
 181              	.LBE3:
  74:Core/Src/can.c ****     /**CAN1 GPIO Configuration
 182              		.loc 1 74 5 view .LVU50
ARM GAS  /tmp/cco3cRqd.s 			page 6


  79:Core/Src/can.c ****     GPIO_InitStruct.Mode = GPIO_MODE_AF_PP;
 183              		.loc 1 79 5 view .LVU51
  79:Core/Src/can.c ****     GPIO_InitStruct.Mode = GPIO_MODE_AF_PP;
 184              		.loc 1 79 25 is_stmt 0 view .LVU52
 185 0046 0323     		movs	r3, #3
 186 0048 0393     		str	r3, [sp, #12]
  80:Core/Src/can.c ****     GPIO_InitStruct.Pull = GPIO_NOPULL;
 187              		.loc 1 80 5 is_stmt 1 view .LVU53
  80:Core/Src/can.c ****     GPIO_InitStruct.Pull = GPIO_NOPULL;
 188              		.loc 1 80 26 is_stmt 0 view .LVU54
 189 004a 0222     		movs	r2, #2
 190 004c 0492     		str	r2, [sp, #16]
  81:Core/Src/can.c ****     GPIO_InitStruct.Speed = GPIO_SPEED_FREQ_VERY_HIGH;
 191              		.loc 1 81 5 is_stmt 1 view .LVU55
  82:Core/Src/can.c ****     GPIO_InitStruct.Alternate = GPIO_AF9_CAN1;
 192              		.loc 1 82 5 view .LVU56
  82:Core/Src/can.c ****     GPIO_InitStruct.Alternate = GPIO_AF9_CAN1;
 193              		.loc 1 82 27 is_stmt 0 view .LVU57
 194 004e 0693     		str	r3, [sp, #24]
  83:Core/Src/can.c ****     HAL_GPIO_Init(GPIOD, &GPIO_InitStruct);
 195              		.loc 1 83 5 is_stmt 1 view .LVU58
  83:Core/Src/can.c ****     HAL_GPIO_Init(GPIOD, &GPIO_InitStruct);
 196              		.loc 1 83 31 is_stmt 0 view .LVU59
 197 0050 0923     		movs	r3, #9
 198 0052 0793     		str	r3, [sp, #28]
  84:Core/Src/can.c **** 
 199              		.loc 1 84 5 is_stmt 1 view .LVU60
 200 0054 03A9     		add	r1, sp, #12
 201 0056 0748     		ldr	r0, .L11+4
 202              	.LVL5:
  84:Core/Src/can.c **** 
 203              		.loc 1 84 5 is_stmt 0 view .LVU61
 204 0058 FFF7FEFF 		bl	HAL_GPIO_Init
 205              	.LVL6:
  87:Core/Src/can.c ****     HAL_NVIC_EnableIRQ(CAN1_RX0_IRQn);
 206              		.loc 1 87 5 is_stmt 1 view .LVU62
 207 005c 0022     		movs	r2, #0
 208 005e 1146     		mov	r1, r2
 209 0060 1420     		movs	r0, #20
 210 0062 FFF7FEFF 		bl	HAL_NVIC_SetPriority
 211              	.LVL7:
  88:Core/Src/can.c ****     /* USER CODE BEGIN CAN1_MspInit 1 */
 212              		.loc 1 88 5 view .LVU63
 213 0066 1420     		movs	r0, #20
 214 0068 FFF7FEFF 		bl	HAL_NVIC_EnableIRQ
 215              	.LVL8:
 216              		.loc 1 93 1 is_stmt 0 view .LVU64
 217 006c D4E7     		b	.L7
 218              	.L12:
 219 006e 00BF     		.align	2
 220              	.L11:
 221 0070 00640040 		.word	1073767424
 222 0074 000C0240 		.word	1073875968
 223              		.cfi_endproc
 224              	.LFE145:
 226              		.section	.text.HAL_CAN_MspDeInit,"ax",%progbits
 227              		.align	1
ARM GAS  /tmp/cco3cRqd.s 			page 7


 228              		.global	HAL_CAN_MspDeInit
 229              		.syntax unified
 230              		.thumb
 231              		.thumb_func
 233              	HAL_CAN_MspDeInit:
 234              	.LVL9:
 235              	.LFB146:
  94:Core/Src/can.c **** 
  95:Core/Src/can.c **** void HAL_CAN_MspDeInit(CAN_HandleTypeDef *canHandle) {
 236              		.loc 1 95 54 is_stmt 1 view -0
 237              		.cfi_startproc
 238              		@ args = 0, pretend = 0, frame = 0
 239              		@ frame_needed = 0, uses_anonymous_args = 0
 240              		.loc 1 95 54 is_stmt 0 view .LVU66
 241 0000 08B5     		push	{r3, lr}
 242              	.LCFI5:
 243              		.cfi_def_cfa_offset 8
 244              		.cfi_offset 3, -8
 245              		.cfi_offset 14, -4
  96:Core/Src/can.c **** 
  97:Core/Src/can.c ****   if (canHandle->Instance == CAN1) {
 246              		.loc 1 97 3 is_stmt 1 view .LVU67
 247              		.loc 1 97 16 is_stmt 0 view .LVU68
 248 0002 0268     		ldr	r2, [r0]
 249              		.loc 1 97 6 view .LVU69
 250 0004 084B     		ldr	r3, .L17
 251 0006 9A42     		cmp	r2, r3
 252 0008 00D0     		beq	.L16
 253              	.LVL10:
 254              	.L13:
  98:Core/Src/can.c ****     /* USER CODE BEGIN CAN1_MspDeInit 0 */
  99:Core/Src/can.c **** 
 100:Core/Src/can.c ****     /* USER CODE END CAN1_MspDeInit 0 */
 101:Core/Src/can.c ****     /* Peripheral clock disable */
 102:Core/Src/can.c ****     __HAL_RCC_CAN1_CLK_DISABLE();
 103:Core/Src/can.c **** 
 104:Core/Src/can.c ****     /**CAN1 GPIO Configuration
 105:Core/Src/can.c ****     PD0     ------> CAN1_RX
 106:Core/Src/can.c ****     PD1     ------> CAN1_TX
 107:Core/Src/can.c ****     */
 108:Core/Src/can.c ****     HAL_GPIO_DeInit(GPIOD, GPIO_PIN_0 | GPIO_PIN_1);
 109:Core/Src/can.c **** 
 110:Core/Src/can.c ****     /* CAN1 interrupt Deinit */
 111:Core/Src/can.c ****     HAL_NVIC_DisableIRQ(CAN1_RX0_IRQn);
 112:Core/Src/can.c ****     /* USER CODE BEGIN CAN1_MspDeInit 1 */
 113:Core/Src/can.c **** 
 114:Core/Src/can.c ****     /* USER CODE END CAN1_MspDeInit 1 */
 115:Core/Src/can.c ****   }
 116:Core/Src/can.c **** }
 255              		.loc 1 116 1 view .LVU70
 256 000a 08BD     		pop	{r3, pc}
 257              	.LVL11:
 258              	.L16:
 102:Core/Src/can.c **** 
 259              		.loc 1 102 5 is_stmt 1 view .LVU71
 260 000c 074A     		ldr	r2, .L17+4
 261 000e 136C     		ldr	r3, [r2, #64]
ARM GAS  /tmp/cco3cRqd.s 			page 8


 262 0010 23F00073 		bic	r3, r3, #33554432
 263 0014 1364     		str	r3, [r2, #64]
 108:Core/Src/can.c **** 
 264              		.loc 1 108 5 view .LVU72
 265 0016 0321     		movs	r1, #3
 266 0018 0548     		ldr	r0, .L17+8
 267              	.LVL12:
 108:Core/Src/can.c **** 
 268              		.loc 1 108 5 is_stmt 0 view .LVU73
 269 001a FFF7FEFF 		bl	HAL_GPIO_DeInit
 270              	.LVL13:
 111:Core/Src/can.c ****     /* USER CODE BEGIN CAN1_MspDeInit 1 */
 271              		.loc 1 111 5 is_stmt 1 view .LVU74
 272 001e 1420     		movs	r0, #20
 273 0020 FFF7FEFF 		bl	HAL_NVIC_DisableIRQ
 274              	.LVL14:
 275              		.loc 1 116 1 is_stmt 0 view .LVU75
 276 0024 F1E7     		b	.L13
 277              	.L18:
 278 0026 00BF     		.align	2
 279              	.L17:
 280 0028 00640040 		.word	1073767424
 281 002c 00380240 		.word	1073887232
 282 0030 000C0240 		.word	1073875968
 283              		.cfi_endproc
 284              	.LFE146:
 286              		.section	.text.CAN_Init_Interrupts,"ax",%progbits
 287              		.align	1
 288              		.global	CAN_Init_Interrupts
 289              		.syntax unified
 290              		.thumb
 291              		.thumb_func
 293              	CAN_Init_Interrupts:
 294              	.LFB147:
 117:Core/Src/can.c **** 
 118:Core/Src/can.c **** /* USER CODE BEGIN 1 */
 119:Core/Src/can.c **** void CAN_Init_Interrupts() {
 295              		.loc 1 119 28 is_stmt 1 view -0
 296              		.cfi_startproc
 297              		@ args = 0, pretend = 0, frame = 40
 298              		@ frame_needed = 0, uses_anonymous_args = 0
 299 0000 10B5     		push	{r4, lr}
 300              	.LCFI6:
 301              		.cfi_def_cfa_offset 8
 302              		.cfi_offset 4, -8
 303              		.cfi_offset 14, -4
 304 0002 8AB0     		sub	sp, sp, #40
 305              	.LCFI7:
 306              		.cfi_def_cfa_offset 48
 120:Core/Src/can.c ****   CAN_FilterTypeDef canFil;
 307              		.loc 1 120 3 view .LVU77
 121:Core/Src/can.c **** 
 122:Core/Src/can.c ****   canFil.FilterBank = 0;
 308              		.loc 1 122 3 view .LVU78
 309              		.loc 1 122 21 is_stmt 0 view .LVU79
 310 0004 0023     		movs	r3, #0
 311 0006 0593     		str	r3, [sp, #20]
ARM GAS  /tmp/cco3cRqd.s 			page 9


 123:Core/Src/can.c ****   canFil.FilterMode = CAN_FILTERMODE_IDMASK;
 312              		.loc 1 123 3 is_stmt 1 view .LVU80
 313              		.loc 1 123 21 is_stmt 0 view .LVU81
 314 0008 0693     		str	r3, [sp, #24]
 124:Core/Src/can.c ****   canFil.FilterFIFOAssignment = CAN_RX_FIFO0;
 315              		.loc 1 124 3 is_stmt 1 view .LVU82
 316              		.loc 1 124 31 is_stmt 0 view .LVU83
 317 000a 0493     		str	r3, [sp, #16]
 125:Core/Src/can.c ****   canFil.FilterIdHigh = 0;
 318              		.loc 1 125 3 is_stmt 1 view .LVU84
 319              		.loc 1 125 23 is_stmt 0 view .LVU85
 320 000c 0093     		str	r3, [sp]
 126:Core/Src/can.c ****   canFil.FilterIdLow = 0;
 321              		.loc 1 126 3 is_stmt 1 view .LVU86
 322              		.loc 1 126 22 is_stmt 0 view .LVU87
 323 000e 0193     		str	r3, [sp, #4]
 127:Core/Src/can.c ****   canFil.FilterMaskIdHigh = 0;
 324              		.loc 1 127 3 is_stmt 1 view .LVU88
 325              		.loc 1 127 27 is_stmt 0 view .LVU89
 326 0010 0293     		str	r3, [sp, #8]
 128:Core/Src/can.c ****   canFil.FilterMaskIdLow = 0;
 327              		.loc 1 128 3 is_stmt 1 view .LVU90
 328              		.loc 1 128 26 is_stmt 0 view .LVU91
 329 0012 0393     		str	r3, [sp, #12]
 129:Core/Src/can.c ****   canFil.FilterScale = CAN_FILTERSCALE_32BIT;
 330              		.loc 1 129 3 is_stmt 1 view .LVU92
 331              		.loc 1 129 22 is_stmt 0 view .LVU93
 332 0014 0123     		movs	r3, #1
 333 0016 0793     		str	r3, [sp, #28]
 130:Core/Src/can.c ****   canFil.FilterActivation = ENABLE;
 334              		.loc 1 130 3 is_stmt 1 view .LVU94
 335              		.loc 1 130 27 is_stmt 0 view .LVU95
 336 0018 0893     		str	r3, [sp, #32]
 131:Core/Src/can.c ****   canFil.SlaveStartFilterBank = 14;
 337              		.loc 1 131 3 is_stmt 1 view .LVU96
 338              		.loc 1 131 31 is_stmt 0 view .LVU97
 339 001a 0E23     		movs	r3, #14
 340 001c 0993     		str	r3, [sp, #36]
 132:Core/Src/can.c **** 
 133:Core/Src/can.c ****   HAL_CAN_ConfigFilter(&hcan1, &canFil); // Initialize CAN Filter
 341              		.loc 1 133 3 is_stmt 1 view .LVU98
 342 001e 094C     		ldr	r4, .L23
 343 0020 6946     		mov	r1, sp
 344 0022 2046     		mov	r0, r4
 345 0024 FFF7FEFF 		bl	HAL_CAN_ConfigFilter
 346              	.LVL15:
 134:Core/Src/can.c ****   HAL_CAN_Start(&hcan1);                 // Initialize CAN Bus
 347              		.loc 1 134 3 view .LVU99
 348 0028 2046     		mov	r0, r4
 349 002a FFF7FEFF 		bl	HAL_CAN_Start
 350              	.LVL16:
 135:Core/Src/can.c ****   if (HAL_CAN_ActivateNotification(&hcan1, CAN_IT_RX_FIFO0_MSG_PENDING)) {
 351              		.loc 1 135 3 view .LVU100
 352              		.loc 1 135 7 is_stmt 0 view .LVU101
 353 002e 0221     		movs	r1, #2
 354 0030 2046     		mov	r0, r4
 355 0032 FFF7FEFF 		bl	HAL_CAN_ActivateNotification
ARM GAS  /tmp/cco3cRqd.s 			page 10


 356              	.LVL17:
 357              		.loc 1 135 6 discriminator 1 view .LVU102
 358 0036 08B9     		cbnz	r0, .L22
 359              	.L19:
 136:Core/Src/can.c ****     Error_Handler();
 137:Core/Src/can.c ****   }
 138:Core/Src/can.c **** }
 360              		.loc 1 138 1 view .LVU103
 361 0038 0AB0     		add	sp, sp, #40
 362              	.LCFI8:
 363              		.cfi_remember_state
 364              		.cfi_def_cfa_offset 8
 365              		@ sp needed
 366 003a 10BD     		pop	{r4, pc}
 367              	.L22:
 368              	.LCFI9:
 369              		.cfi_restore_state
 136:Core/Src/can.c ****     Error_Handler();
 370              		.loc 1 136 5 is_stmt 1 view .LVU104
 371 003c FFF7FEFF 		bl	Error_Handler
 372              	.LVL18:
 373              		.loc 1 138 1 is_stmt 0 view .LVU105
 374 0040 FAE7     		b	.L19
 375              	.L24:
 376 0042 00BF     		.align	2
 377              	.L23:
 378 0044 00000000 		.word	hcan1
 379              		.cfi_endproc
 380              	.LFE147:
 382              		.section	.text.CAN_Send_Message,"ax",%progbits
 383              		.align	1
 384              		.global	CAN_Send_Message
 385              		.syntax unified
 386              		.thumb
 387              		.thumb_func
 389              	CAN_Send_Message:
 390              	.LVL19:
 391              	.LFB148:
 139:Core/Src/can.c **** 
 140:Core/Src/can.c **** void CAN_Send_Message(uint16_t address, uint8_t *message) {
 392              		.loc 1 140 59 is_stmt 1 view -0
 393              		.cfi_startproc
 394              		@ args = 0, pretend = 0, frame = 32
 395              		@ frame_needed = 0, uses_anonymous_args = 0
 396              		.loc 1 140 59 is_stmt 0 view .LVU107
 397 0000 00B5     		push	{lr}
 398              	.LCFI10:
 399              		.cfi_def_cfa_offset 4
 400              		.cfi_offset 14, -4
 401 0002 89B0     		sub	sp, sp, #36
 402              	.LCFI11:
 403              		.cfi_def_cfa_offset 40
 404 0004 0A46     		mov	r2, r1
 141:Core/Src/can.c ****   CAN_TxHeaderTypeDef txHeader;
 405              		.loc 1 141 3 is_stmt 1 view .LVU108
 142:Core/Src/can.c ****   uint32_t canMailbox;
 406              		.loc 1 142 3 view .LVU109
ARM GAS  /tmp/cco3cRqd.s 			page 11


 143:Core/Src/can.c **** 
 144:Core/Src/can.c ****   txHeader.DLC = 8; // Number of bytes to be transmitted max- 8
 407              		.loc 1 144 3 view .LVU110
 408              		.loc 1 144 16 is_stmt 0 view .LVU111
 409 0006 0823     		movs	r3, #8
 410 0008 0693     		str	r3, [sp, #24]
 145:Core/Src/can.c ****   txHeader.IDE = CAN_ID_STD;
 411              		.loc 1 145 3 is_stmt 1 view .LVU112
 412              		.loc 1 145 16 is_stmt 0 view .LVU113
 413 000a 0023     		movs	r3, #0
 414 000c 0493     		str	r3, [sp, #16]
 146:Core/Src/can.c ****   txHeader.RTR = CAN_RTR_DATA;
 415              		.loc 1 146 3 is_stmt 1 view .LVU114
 416              		.loc 1 146 16 is_stmt 0 view .LVU115
 417 000e 0593     		str	r3, [sp, #20]
 147:Core/Src/can.c ****   txHeader.StdId = 0x00;
 418              		.loc 1 147 3 is_stmt 1 view .LVU116
 419              		.loc 1 147 18 is_stmt 0 view .LVU117
 420 0010 0293     		str	r3, [sp, #8]
 148:Core/Src/can.c ****   txHeader.ExtId = address;
 421              		.loc 1 148 3 is_stmt 1 view .LVU118
 422              		.loc 1 148 18 is_stmt 0 view .LVU119
 423 0012 0390     		str	r0, [sp, #12]
 149:Core/Src/can.c ****   txHeader.TransmitGlobalTime = DISABLE;
 424              		.loc 1 149 3 is_stmt 1 view .LVU120
 425              		.loc 1 149 31 is_stmt 0 view .LVU121
 426 0014 8DF81C30 		strb	r3, [sp, #28]
 150:Core/Src/can.c **** 
 151:Core/Src/can.c ****   HAL_CAN_AddTxMessage(&hcan1, &txHeader, message, &canMailbox);
 427              		.loc 1 151 3 is_stmt 1 view .LVU122
 428 0018 01AB     		add	r3, sp, #4
 429 001a 02A9     		add	r1, sp, #8
 430              	.LVL20:
 431              		.loc 1 151 3 is_stmt 0 view .LVU123
 432 001c 0248     		ldr	r0, .L27
 433              	.LVL21:
 434              		.loc 1 151 3 view .LVU124
 435 001e FFF7FEFF 		bl	HAL_CAN_AddTxMessage
 436              	.LVL22:
 152:Core/Src/can.c **** }
 437              		.loc 1 152 1 view .LVU125
 438 0022 09B0     		add	sp, sp, #36
 439              	.LCFI12:
 440              		.cfi_def_cfa_offset 4
 441              		@ sp needed
 442 0024 5DF804FB 		ldr	pc, [sp], #4
 443              	.L28:
 444              		.align	2
 445              	.L27:
 446 0028 00000000 		.word	hcan1
 447              		.cfi_endproc
 448              	.LFE148:
 450              		.section	.rodata.HAL_CAN_RxFifo0MsgPendingCallback.str1.4,"aMS",%progbits,1
 451              		.align	2
 452              	.LC0:
 453 0000 4572726F 		.ascii	"Error flag raised with id - %llu\012\015\000"
 453      7220666C 
ARM GAS  /tmp/cco3cRqd.s 			page 12


 453      61672072 
 453      61697365 
 453      64207769 
 454 0023 00       		.align	2
 455              	.LC1:
 456 0024 556E6B6E 		.ascii	"Unknown broadcasted message extended id. Cannot par"
 456      6F776E20 
 456      62726F61 
 456      64636173 
 456      74656420 
 457 0057 73652100 		.ascii	"se!\000"
 458              		.section	.text.HAL_CAN_RxFifo0MsgPendingCallback,"ax",%progbits
 459              		.align	1
 460              		.global	HAL_CAN_RxFifo0MsgPendingCallback
 461              		.syntax unified
 462              		.thumb
 463              		.thumb_func
 465              	HAL_CAN_RxFifo0MsgPendingCallback:
 466              	.LVL23:
 467              	.LFB149:
 153:Core/Src/can.c **** 
 154:Core/Src/can.c **** void HAL_CAN_RxFifo0MsgPendingCallback(CAN_HandleTypeDef *hcan1) {
 468              		.loc 1 154 66 is_stmt 1 view -0
 469              		.cfi_startproc
 470              		@ args = 0, pretend = 0, frame = 560
 471              		@ frame_needed = 0, uses_anonymous_args = 0
 472              		.loc 1 154 66 is_stmt 0 view .LVU127
 473 0000 30B5     		push	{r4, r5, lr}
 474              	.LCFI13:
 475              		.cfi_def_cfa_offset 12
 476              		.cfi_offset 4, -12
 477              		.cfi_offset 5, -8
 478              		.cfi_offset 14, -4
 479 0002 ADF50D7D 		sub	sp, sp, #564
 480              	.LCFI14:
 481              		.cfi_def_cfa_offset 576
 155:Core/Src/can.c ****   CAN_RxHeaderTypeDef rxHeader;
 482              		.loc 1 155 3 is_stmt 1 view .LVU128
 156:Core/Src/can.c **** 
 157:Core/Src/can.c ****   uint8_t buffTx[8] = {0, 0, 0, 0, 0, 0, 0, 0};
 483              		.loc 1 157 3 view .LVU129
 484              		.loc 1 157 11 is_stmt 0 view .LVU130
 485 0006 0021     		movs	r1, #0
 486 0008 8391     		str	r1, [sp, #524]
 487 000a 8491     		str	r1, [sp, #528]
 158:Core/Src/can.c **** 
 159:Core/Src/can.c ****   if (HAL_CAN_GetRxMessage(hcan1, CAN_RX_FIFO0, &rxHeader, buffTx) != HAL_OK) {
 488              		.loc 1 159 3 is_stmt 1 view .LVU131
 489              		.loc 1 159 7 is_stmt 0 view .LVU132
 490 000c 83AB     		add	r3, sp, #524
 491 000e 85AA     		add	r2, sp, #532
 492 0010 FFF7FEFF 		bl	HAL_CAN_GetRxMessage
 493              	.LVL24:
 494              		.loc 1 159 6 discriminator 1 view .LVU133
 495 0014 A0B9     		cbnz	r0, .L43
 496              	.L30:
 160:Core/Src/can.c ****     Error_Handler();
ARM GAS  /tmp/cco3cRqd.s 			page 13


 161:Core/Src/can.c ****   }
 162:Core/Src/can.c **** 
 163:Core/Src/can.c ****   switch (rxHeader.ExtId) {
 497              		.loc 1 163 3 is_stmt 1 view .LVU134
 498              		.loc 1 163 19 is_stmt 0 view .LVU135
 499 0016 869B     		ldr	r3, [sp, #536]
 500              		.loc 1 163 3 view .LVU136
 501 0018 A53B     		subs	r3, r3, #165
 502 001a 1D2B     		cmp	r3, #29
 503 001c 48D8     		bhi	.L31
 504 001e DFE803F0 		tbb	[pc, r3]
 505              	.L33:
 506 0022 33       		.byte	(.L37-.L33)/2
 507 0023 47       		.byte	(.L31-.L33)/2
 508 0024 37       		.byte	(.L36-.L33)/2
 509 0025 47       		.byte	(.L31-.L33)/2
 510 0026 47       		.byte	(.L31-.L33)/2
 511 0027 12       		.byte	(.L35-.L33)/2
 512 0028 18       		.byte	(.L34-.L33)/2
 513 0029 47       		.byte	(.L31-.L33)/2
 514 002a 47       		.byte	(.L31-.L33)/2
 515 002b 47       		.byte	(.L31-.L33)/2
 516 002c 47       		.byte	(.L31-.L33)/2
 517 002d 47       		.byte	(.L31-.L33)/2
 518 002e 47       		.byte	(.L31-.L33)/2
 519 002f 47       		.byte	(.L31-.L33)/2
 520 0030 47       		.byte	(.L31-.L33)/2
 521 0031 47       		.byte	(.L31-.L33)/2
 522 0032 47       		.byte	(.L31-.L33)/2
 523 0033 47       		.byte	(.L31-.L33)/2
 524 0034 47       		.byte	(.L31-.L33)/2
 525 0035 47       		.byte	(.L31-.L33)/2
 526 0036 47       		.byte	(.L31-.L33)/2
 527 0037 47       		.byte	(.L31-.L33)/2
 528 0038 47       		.byte	(.L31-.L33)/2
 529 0039 47       		.byte	(.L31-.L33)/2
 530 003a 47       		.byte	(.L31-.L33)/2
 531 003b 47       		.byte	(.L31-.L33)/2
 532 003c 47       		.byte	(.L31-.L33)/2
 533 003d 47       		.byte	(.L31-.L33)/2
 534 003e 47       		.byte	(.L31-.L33)/2
 535 003f 3B       		.byte	(.L32-.L33)/2
 536              		.p2align 1
 537              	.L43:
 160:Core/Src/can.c ****     Error_Handler();
 538              		.loc 1 160 5 is_stmt 1 view .LVU137
 539 0040 FFF7FEFF 		bl	Error_Handler
 540              	.LVL25:
 541 0044 E7E7     		b	.L30
 542              	.L35:
 543              	.LBB4:
 164:Core/Src/can.c ****   case 0x0AA:
 165:Core/Src/can.c ****     Parse_Internal_States(buffTx);
 544              		.loc 1 165 5 view .LVU138
 545 0046 83A8     		add	r0, sp, #524
 546 0048 FFF7FEFF 		bl	Parse_Internal_States
 547              	.LVL26:
ARM GAS  /tmp/cco3cRqd.s 			page 14


 166:Core/Src/can.c ****     break;
 548              		.loc 1 166 5 view .LVU139
 549              	.L29:
 550              	.LBE4:
 167:Core/Src/can.c ****   case 0x0AB:
 168:Core/Src/can.c ****     Parse_Fault_Codes(buffTx);
 169:Core/Src/can.c **** 
 170:Core/Src/can.c ****     enum POSSIBLE_FAULTS possible_faults_buff[64] = {};
 171:Core/Src/can.c ****     size_t err_size = Check_Fault_Codes(possible_faults_buff);
 172:Core/Src/can.c ****     for (size_t i = 0; i < err_size; i++) {
 173:Core/Src/can.c ****       printf("Error flag raised with id - %llu\n\r",
 174:Core/Src/can.c ****              (unsigned long long)possible_faults_buff[i]);
 175:Core/Src/can.c ****     }
 176:Core/Src/can.c **** 
 177:Core/Src/can.c ****     break;
 178:Core/Src/can.c ****   case 0x0A5:
 179:Core/Src/can.c ****     Parse_Motor_Position_Information(buffTx);
 180:Core/Src/can.c ****     break;
 181:Core/Src/can.c ****   case 0x0A7:
 182:Core/Src/can.c ****     Parse_Voltage_Information(buffTx);
 183:Core/Src/can.c ****     break;
 184:Core/Src/can.c ****   case 0x0C2:
 185:Core/Src/can.c ****     uint16_t parameter_address = 0;
 186:Core/Src/can.c ****     int16_t data = 0;
 187:Core/Src/can.c ****     Parse_Parameter_Message(buffTx, &parameter_address, &data);
 188:Core/Src/can.c ****     break;
 189:Core/Src/can.c ****   default:
 190:Core/Src/can.c ****     printf("Unknown broadcasted message extended id. Cannot parse!");
 191:Core/Src/can.c ****   }
 192:Core/Src/can.c **** }
 551              		.loc 1 192 1 is_stmt 0 view .LVU140
 552 004c 0DF50D7D 		add	sp, sp, #564
 553              	.LCFI15:
 554              		.cfi_remember_state
 555              		.cfi_def_cfa_offset 12
 556              		@ sp needed
 557 0050 30BD     		pop	{r4, r5, pc}
 558              	.L34:
 559              	.LCFI16:
 560              		.cfi_restore_state
 561              	.LBB6:
 168:Core/Src/can.c **** 
 562              		.loc 1 168 5 is_stmt 1 view .LVU141
 563 0052 83A8     		add	r0, sp, #524
 564 0054 FFF7FEFF 		bl	Parse_Fault_Codes
 565              	.LVL27:
 170:Core/Src/can.c ****     size_t err_size = Check_Fault_Codes(possible_faults_buff);
 566              		.loc 1 170 5 view .LVU142
 170:Core/Src/can.c ****     size_t err_size = Check_Fault_Codes(possible_faults_buff);
 567              		.loc 1 170 26 is_stmt 0 view .LVU143
 568 0058 4FF40072 		mov	r2, #512
 569 005c 0021     		movs	r1, #0
 570 005e 02A8     		add	r0, sp, #8
 571 0060 FFF7FEFF 		bl	memset
 572              	.LVL28:
 171:Core/Src/can.c ****     for (size_t i = 0; i < err_size; i++) {
 573              		.loc 1 171 5 is_stmt 1 view .LVU144
ARM GAS  /tmp/cco3cRqd.s 			page 15


 171:Core/Src/can.c ****     for (size_t i = 0; i < err_size; i++) {
 574              		.loc 1 171 23 is_stmt 0 view .LVU145
 575 0064 02A8     		add	r0, sp, #8
 576 0066 FFF7FEFF 		bl	Check_Fault_Codes
 577              	.LVL29:
 578 006a 0546     		mov	r5, r0
 579              	.LVL30:
 172:Core/Src/can.c ****       printf("Error flag raised with id - %llu\n\r",
 580              		.loc 1 172 5 is_stmt 1 view .LVU146
 581              	.LBB5:
 172:Core/Src/can.c ****       printf("Error flag raised with id - %llu\n\r",
 582              		.loc 1 172 10 view .LVU147
 172:Core/Src/can.c ****       printf("Error flag raised with id - %llu\n\r",
 583              		.loc 1 172 17 is_stmt 0 view .LVU148
 584 006c 0024     		movs	r4, #0
 172:Core/Src/can.c ****       printf("Error flag raised with id - %llu\n\r",
 585              		.loc 1 172 5 view .LVU149
 586 006e 08E0     		b	.L39
 587              	.LVL31:
 588              	.L40:
 173:Core/Src/can.c ****              (unsigned long long)possible_faults_buff[i]);
 589              		.loc 1 173 7 is_stmt 1 view .LVU150
 174:Core/Src/can.c ****     }
 590              		.loc 1 174 54 is_stmt 0 view .LVU151
 591 0070 02AB     		add	r3, sp, #8
 592 0072 03EBC403 		add	r3, r3, r4, lsl #3
 173:Core/Src/can.c ****              (unsigned long long)possible_faults_buff[i]);
 593              		.loc 1 173 7 view .LVU152
 594 0076 D3E90023 		ldrd	r2, [r3]
 595 007a 0F48     		ldr	r0, .L44
 596 007c FFF7FEFF 		bl	printf
 597              	.LVL32:
 172:Core/Src/can.c ****       printf("Error flag raised with id - %llu\n\r",
 598              		.loc 1 172 39 is_stmt 1 discriminator 3 view .LVU153
 599 0080 0134     		adds	r4, r4, #1
 600              	.LVL33:
 601              	.L39:
 172:Core/Src/can.c ****       printf("Error flag raised with id - %llu\n\r",
 602              		.loc 1 172 26 discriminator 1 view .LVU154
 603 0082 AC42     		cmp	r4, r5
 604 0084 F4D3     		bcc	.L40
 605 0086 E1E7     		b	.L29
 606              	.LVL34:
 607              	.L37:
 172:Core/Src/can.c ****       printf("Error flag raised with id - %llu\n\r",
 608              		.loc 1 172 26 is_stmt 0 discriminator 1 view .LVU155
 609              	.LBE5:
 179:Core/Src/can.c ****     break;
 610              		.loc 1 179 5 is_stmt 1 view .LVU156
 611 0088 83A8     		add	r0, sp, #524
 612 008a FFF7FEFF 		bl	Parse_Motor_Position_Information
 613              	.LVL35:
 180:Core/Src/can.c ****   case 0x0A7:
 614              		.loc 1 180 5 view .LVU157
 615 008e DDE7     		b	.L29
 616              	.L36:
 182:Core/Src/can.c ****     break;
ARM GAS  /tmp/cco3cRqd.s 			page 16


 617              		.loc 1 182 5 view .LVU158
 618 0090 83A8     		add	r0, sp, #524
 619 0092 FFF7FEFF 		bl	Parse_Voltage_Information
 620              	.LVL36:
 183:Core/Src/can.c ****   case 0x0C2:
 621              		.loc 1 183 5 view .LVU159
 622 0096 D9E7     		b	.L29
 623              	.L32:
 185:Core/Src/can.c ****     int16_t data = 0;
 624              		.loc 1 185 5 view .LVU160
 185:Core/Src/can.c ****     int16_t data = 0;
 625              		.loc 1 185 14 is_stmt 0 view .LVU161
 626 0098 0023     		movs	r3, #0
 627 009a ADF80630 		strh	r3, [sp, #6]	@ movhi
 186:Core/Src/can.c ****     Parse_Parameter_Message(buffTx, &parameter_address, &data);
 628              		.loc 1 186 5 is_stmt 1 view .LVU162
 186:Core/Src/can.c ****     Parse_Parameter_Message(buffTx, &parameter_address, &data);
 629              		.loc 1 186 13 is_stmt 0 view .LVU163
 630 009e ADF80830 		strh	r3, [sp, #8]	@ movhi
 187:Core/Src/can.c ****     break;
 631              		.loc 1 187 5 is_stmt 1 view .LVU164
 632 00a2 02AA     		add	r2, sp, #8
 633 00a4 0DF10601 		add	r1, sp, #6
 634 00a8 83A8     		add	r0, sp, #524
 635 00aa FFF7FEFF 		bl	Parse_Parameter_Message
 636              	.LVL37:
 188:Core/Src/can.c ****   default:
 637              		.loc 1 188 5 view .LVU165
 638 00ae CDE7     		b	.L29
 639              	.L31:
 190:Core/Src/can.c ****   }
 640              		.loc 1 190 5 view .LVU166
 641 00b0 0248     		ldr	r0, .L44+4
 642 00b2 FFF7FEFF 		bl	printf
 643              	.LVL38:
 644 00b6 C9E7     		b	.L29
 645              	.L45:
 646              		.align	2
 647              	.L44:
 648 00b8 00000000 		.word	.LC0
 649 00bc 24000000 		.word	.LC1
 650              	.LBE6:
 651              		.cfi_endproc
 652              	.LFE149:
 654              		.global	hcan1
 655              		.section	.bss.hcan1,"aw",%nobits
 656              		.align	2
 659              	hcan1:
 660 0000 00000000 		.space	40
 660      00000000 
 660      00000000 
 660      00000000 
 660      00000000 
 661              		.text
 662              	.Letext0:
 663              		.file 2 "Drivers/CMSIS/Device/ST/STM32F7xx/Include/stm32f767xx.h"
 664              		.file 3 "/usr/lib/gcc/arm-none-eabi/13.2.1/include/stdint.h"
ARM GAS  /tmp/cco3cRqd.s 			page 17


 665              		.file 4 "Drivers/CMSIS/Device/ST/STM32F7xx/Include/stm32f7xx.h"
 666              		.file 5 "/usr/lib/gcc/arm-none-eabi/13.2.1/include/stddef.h"
 667              		.file 6 "Drivers/STM32F7xx_HAL_Driver/Inc/stm32f7xx_hal_def.h"
 668              		.file 7 "Drivers/STM32F7xx_HAL_Driver/Inc/stm32f7xx_hal_gpio.h"
 669              		.file 8 "Drivers/STM32F7xx_HAL_Driver/Inc/stm32f7xx_hal_can.h"
 670              		.file 9 "Core/Inc/inverter_command.h"
 671              		.file 10 "Core/Inc/inverter_broadcast.h"
 672              		.file 11 "/usr/include/newlib/stdio.h"
 673              		.file 12 "Drivers/STM32F7xx_HAL_Driver/Inc/stm32f7xx_hal_cortex.h"
 674              		.file 13 "Core/Inc/can.h"
 675              		.file 14 "Core/Inc/main.h"
 676              		.file 15 "<built-in>"
ARM GAS  /tmp/cco3cRqd.s 			page 18


DEFINED SYMBOLS
                            *ABS*:00000000 can.c
     /tmp/cco3cRqd.s:20     .text.MX_CAN1_Init:00000000 $t
     /tmp/cco3cRqd.s:26     .text.MX_CAN1_Init:00000000 MX_CAN1_Init
     /tmp/cco3cRqd.s:97     .text.MX_CAN1_Init:00000038 $d
     /tmp/cco3cRqd.s:659    .bss.hcan1:00000000 hcan1
     /tmp/cco3cRqd.s:103    .text.HAL_CAN_MspInit:00000000 $t
     /tmp/cco3cRqd.s:109    .text.HAL_CAN_MspInit:00000000 HAL_CAN_MspInit
     /tmp/cco3cRqd.s:221    .text.HAL_CAN_MspInit:00000070 $d
     /tmp/cco3cRqd.s:227    .text.HAL_CAN_MspDeInit:00000000 $t
     /tmp/cco3cRqd.s:233    .text.HAL_CAN_MspDeInit:00000000 HAL_CAN_MspDeInit
     /tmp/cco3cRqd.s:280    .text.HAL_CAN_MspDeInit:00000028 $d
     /tmp/cco3cRqd.s:287    .text.CAN_Init_Interrupts:00000000 $t
     /tmp/cco3cRqd.s:293    .text.CAN_Init_Interrupts:00000000 CAN_Init_Interrupts
     /tmp/cco3cRqd.s:378    .text.CAN_Init_Interrupts:00000044 $d
     /tmp/cco3cRqd.s:383    .text.CAN_Send_Message:00000000 $t
     /tmp/cco3cRqd.s:389    .text.CAN_Send_Message:00000000 CAN_Send_Message
     /tmp/cco3cRqd.s:446    .text.CAN_Send_Message:00000028 $d
     /tmp/cco3cRqd.s:451    .rodata.HAL_CAN_RxFifo0MsgPendingCallback.str1.4:00000000 $d
     /tmp/cco3cRqd.s:459    .text.HAL_CAN_RxFifo0MsgPendingCallback:00000000 $t
     /tmp/cco3cRqd.s:465    .text.HAL_CAN_RxFifo0MsgPendingCallback:00000000 HAL_CAN_RxFifo0MsgPendingCallback
     /tmp/cco3cRqd.s:506    .text.HAL_CAN_RxFifo0MsgPendingCallback:00000022 $d
     /tmp/cco3cRqd.s:536    .text.HAL_CAN_RxFifo0MsgPendingCallback:00000040 $t
     /tmp/cco3cRqd.s:648    .text.HAL_CAN_RxFifo0MsgPendingCallback:000000b8 $d
     /tmp/cco3cRqd.s:656    .bss.hcan1:00000000 $d

UNDEFINED SYMBOLS
HAL_CAN_Init
Error_Handler
HAL_GPIO_Init
HAL_NVIC_SetPriority
HAL_NVIC_EnableIRQ
HAL_GPIO_DeInit
HAL_NVIC_DisableIRQ
HAL_CAN_ConfigFilter
HAL_CAN_Start
HAL_CAN_ActivateNotification
HAL_CAN_AddTxMessage
HAL_CAN_GetRxMessage
Parse_Internal_States
Parse_Fault_Codes
memset
Check_Fault_Codes
printf
Parse_Motor_Position_Information
Parse_Voltage_Information
Parse_Parameter_Message
