ARM GAS  /tmp/ccwUoDQO.s 			page 1


   1              		.cpu cortex-m7
   2              		.arch armv7e-m
   3              		.fpu fpv5-d16
   4              		.eabi_attribute 28, 1
   5              		.eabi_attribute 20, 1
   6              		.eabi_attribute 21, 1
   7              		.eabi_attribute 23, 3
   8              		.eabi_attribute 24, 1
   9              		.eabi_attribute 25, 1
  10              		.eabi_attribute 26, 1
  11              		.eabi_attribute 30, 1
  12              		.eabi_attribute 34, 1
  13              		.eabi_attribute 18, 4
  14              		.file	"can.c"
  15              		.text
  16              	.Ltext0:
  17              		.cfi_sections	.debug_frame
  18              		.file 1 "Core/Src/can.c"
  19              		.section	.text.MX_CAN1_Init,"ax",%progbits
  20              		.align	1
  21              		.global	MX_CAN1_Init
  22              		.syntax unified
  23              		.thumb
  24              		.thumb_func
  26              	MX_CAN1_Init:
  27              	.LFB144:
   1:Core/Src/can.c **** /* USER CODE BEGIN Header */
   2:Core/Src/can.c **** /**
   3:Core/Src/can.c ****  ******************************************************************************
   4:Core/Src/can.c ****  * @file    can.c
   5:Core/Src/can.c ****  * @brief   This file provides code for the configuration
   6:Core/Src/can.c ****  *          of the CAN instances.
   7:Core/Src/can.c ****  ******************************************************************************
   8:Core/Src/can.c ****  * @attention
   9:Core/Src/can.c ****  *
  10:Core/Src/can.c ****  * Copyright (c) 2025 STMicroelectronics.
  11:Core/Src/can.c ****  * All rights reserved.
  12:Core/Src/can.c ****  *
  13:Core/Src/can.c ****  * This software is licensed under terms that can be found in the LICENSE file
  14:Core/Src/can.c ****  * in the root directory of this software component.
  15:Core/Src/can.c ****  * If no LICENSE file comes with this software, it is provided AS-IS.
  16:Core/Src/can.c ****  *
  17:Core/Src/can.c ****  ******************************************************************************
  18:Core/Src/can.c ****  */
  19:Core/Src/can.c **** /* USER CODE END Header */
  20:Core/Src/can.c **** /* Includes ------------------------------------------------------------------*/
  21:Core/Src/can.c **** #include "can.h"
  22:Core/Src/can.c **** #include "inverter_broadcast.h"
  23:Core/Src/can.c **** #include "inverter_command.h"
  24:Core/Src/can.c **** #include "stdio.h"
  25:Core/Src/can.c **** #include "stm32f7xx_hal_can.h"
  26:Core/Src/can.c **** 
  27:Core/Src/can.c **** /* USER CODE BEGIN 0 */
  28:Core/Src/can.c **** 
  29:Core/Src/can.c **** /* USER CODE END 0 */
  30:Core/Src/can.c **** 
  31:Core/Src/can.c **** CAN_HandleTypeDef hcan1;
ARM GAS  /tmp/ccwUoDQO.s 			page 2


  32:Core/Src/can.c **** 
  33:Core/Src/can.c **** /* CAN1 init function */
  34:Core/Src/can.c **** void MX_CAN1_Init(void) {
  28              		.loc 1 34 25 view -0
  29              		.cfi_startproc
  30              		@ args = 0, pretend = 0, frame = 0
  31              		@ frame_needed = 0, uses_anonymous_args = 0
  32 0000 08B5     		push	{r3, lr}
  33              	.LCFI0:
  34              		.cfi_def_cfa_offset 8
  35              		.cfi_offset 3, -8
  36              		.cfi_offset 14, -4
  35:Core/Src/can.c **** 
  36:Core/Src/can.c ****   /* USER CODE BEGIN CAN1_Init 0 */
  37:Core/Src/can.c **** 
  38:Core/Src/can.c ****   /* USER CODE END CAN1_Init 0 */
  39:Core/Src/can.c **** 
  40:Core/Src/can.c ****   /* USER CODE BEGIN CAN1_Init 1 */
  41:Core/Src/can.c **** 
  42:Core/Src/can.c ****   /* USER CODE END CAN1_Init 1 */
  43:Core/Src/can.c ****   hcan1.Instance = CAN1;
  37              		.loc 1 43 3 view .LVU1
  38              		.loc 1 43 18 is_stmt 0 view .LVU2
  39 0002 0D48     		ldr	r0, .L5
  40 0004 0D4B     		ldr	r3, .L5+4
  41 0006 0360     		str	r3, [r0]
  44:Core/Src/can.c ****   hcan1.Init.Prescaler = 16;
  42              		.loc 1 44 3 is_stmt 1 view .LVU3
  43              		.loc 1 44 24 is_stmt 0 view .LVU4
  44 0008 1023     		movs	r3, #16
  45 000a 4360     		str	r3, [r0, #4]
  45:Core/Src/can.c ****   hcan1.Init.Mode = CAN_MODE_NORMAL;
  46              		.loc 1 45 3 is_stmt 1 view .LVU5
  47              		.loc 1 45 19 is_stmt 0 view .LVU6
  48 000c 0023     		movs	r3, #0
  49 000e 8360     		str	r3, [r0, #8]
  46:Core/Src/can.c ****   hcan1.Init.SyncJumpWidth = CAN_SJW_1TQ;
  50              		.loc 1 46 3 is_stmt 1 view .LVU7
  51              		.loc 1 46 28 is_stmt 0 view .LVU8
  52 0010 C360     		str	r3, [r0, #12]
  47:Core/Src/can.c ****   hcan1.Init.TimeSeg1 = CAN_BS1_6TQ;
  53              		.loc 1 47 3 is_stmt 1 view .LVU9
  54              		.loc 1 47 23 is_stmt 0 view .LVU10
  55 0012 4FF4A022 		mov	r2, #327680
  56 0016 0261     		str	r2, [r0, #16]
  48:Core/Src/can.c ****   hcan1.Init.TimeSeg2 = CAN_BS2_5TQ;
  57              		.loc 1 48 3 is_stmt 1 view .LVU11
  58              		.loc 1 48 23 is_stmt 0 view .LVU12
  59 0018 4FF48002 		mov	r2, #4194304
  60 001c 4261     		str	r2, [r0, #20]
  49:Core/Src/can.c ****   hcan1.Init.TimeTriggeredMode = DISABLE;
  61              		.loc 1 49 3 is_stmt 1 view .LVU13
  62              		.loc 1 49 32 is_stmt 0 view .LVU14
  63 001e 0376     		strb	r3, [r0, #24]
  50:Core/Src/can.c ****   hcan1.Init.AutoBusOff = DISABLE;
  64              		.loc 1 50 3 is_stmt 1 view .LVU15
  65              		.loc 1 50 25 is_stmt 0 view .LVU16
ARM GAS  /tmp/ccwUoDQO.s 			page 3


  66 0020 4376     		strb	r3, [r0, #25]
  51:Core/Src/can.c ****   hcan1.Init.AutoWakeUp = DISABLE;
  67              		.loc 1 51 3 is_stmt 1 view .LVU17
  68              		.loc 1 51 25 is_stmt 0 view .LVU18
  69 0022 8376     		strb	r3, [r0, #26]
  52:Core/Src/can.c ****   hcan1.Init.AutoRetransmission = DISABLE;
  70              		.loc 1 52 3 is_stmt 1 view .LVU19
  71              		.loc 1 52 33 is_stmt 0 view .LVU20
  72 0024 C376     		strb	r3, [r0, #27]
  53:Core/Src/can.c ****   hcan1.Init.ReceiveFifoLocked = DISABLE;
  73              		.loc 1 53 3 is_stmt 1 view .LVU21
  74              		.loc 1 53 32 is_stmt 0 view .LVU22
  75 0026 0377     		strb	r3, [r0, #28]
  54:Core/Src/can.c ****   hcan1.Init.TransmitFifoPriority = DISABLE;
  76              		.loc 1 54 3 is_stmt 1 view .LVU23
  77              		.loc 1 54 35 is_stmt 0 view .LVU24
  78 0028 4377     		strb	r3, [r0, #29]
  55:Core/Src/can.c ****   if (HAL_CAN_Init(&hcan1) != HAL_OK) {
  79              		.loc 1 55 3 is_stmt 1 view .LVU25
  80              		.loc 1 55 7 is_stmt 0 view .LVU26
  81 002a FFF7FEFF 		bl	HAL_CAN_Init
  82              	.LVL0:
  83              		.loc 1 55 6 discriminator 1 view .LVU27
  84 002e 00B9     		cbnz	r0, .L4
  85              	.L1:
  56:Core/Src/can.c ****     Error_Handler();
  57:Core/Src/can.c ****   }
  58:Core/Src/can.c ****   /* USER CODE BEGIN CAN1_Init 2 */
  59:Core/Src/can.c **** 
  60:Core/Src/can.c ****   /* USER CODE END CAN1_Init 2 */
  61:Core/Src/can.c **** }
  86              		.loc 1 61 1 view .LVU28
  87 0030 08BD     		pop	{r3, pc}
  88              	.L4:
  56:Core/Src/can.c ****     Error_Handler();
  89              		.loc 1 56 5 is_stmt 1 view .LVU29
  90 0032 FFF7FEFF 		bl	Error_Handler
  91              	.LVL1:
  92              		.loc 1 61 1 is_stmt 0 view .LVU30
  93 0036 FBE7     		b	.L1
  94              	.L6:
  95              		.align	2
  96              	.L5:
  97 0038 00000000 		.word	hcan1
  98 003c 00640040 		.word	1073767424
  99              		.cfi_endproc
 100              	.LFE144:
 102              		.section	.text.HAL_CAN_MspInit,"ax",%progbits
 103              		.align	1
 104              		.global	HAL_CAN_MspInit
 105              		.syntax unified
 106              		.thumb
 107              		.thumb_func
 109              	HAL_CAN_MspInit:
 110              	.LVL2:
 111              	.LFB145:
  62:Core/Src/can.c **** 
ARM GAS  /tmp/ccwUoDQO.s 			page 4


  63:Core/Src/can.c **** void HAL_CAN_MspInit(CAN_HandleTypeDef *canHandle) {
 112              		.loc 1 63 52 is_stmt 1 view -0
 113              		.cfi_startproc
 114              		@ args = 0, pretend = 0, frame = 32
 115              		@ frame_needed = 0, uses_anonymous_args = 0
 116              		.loc 1 63 52 is_stmt 0 view .LVU32
 117 0000 00B5     		push	{lr}
 118              	.LCFI1:
 119              		.cfi_def_cfa_offset 4
 120              		.cfi_offset 14, -4
 121 0002 89B0     		sub	sp, sp, #36
 122              	.LCFI2:
 123              		.cfi_def_cfa_offset 40
  64:Core/Src/can.c **** 
  65:Core/Src/can.c ****   GPIO_InitTypeDef GPIO_InitStruct = {0};
 124              		.loc 1 65 3 is_stmt 1 view .LVU33
 125              		.loc 1 65 20 is_stmt 0 view .LVU34
 126 0004 0023     		movs	r3, #0
 127 0006 0393     		str	r3, [sp, #12]
 128 0008 0493     		str	r3, [sp, #16]
 129 000a 0593     		str	r3, [sp, #20]
 130 000c 0693     		str	r3, [sp, #24]
 131 000e 0793     		str	r3, [sp, #28]
  66:Core/Src/can.c ****   if (canHandle->Instance == CAN1) {
 132              		.loc 1 66 3 is_stmt 1 view .LVU35
 133              		.loc 1 66 16 is_stmt 0 view .LVU36
 134 0010 0268     		ldr	r2, [r0]
 135              		.loc 1 66 6 view .LVU37
 136 0012 174B     		ldr	r3, .L11
 137 0014 9A42     		cmp	r2, r3
 138 0016 02D0     		beq	.L10
 139              	.LVL3:
 140              	.L7:
  67:Core/Src/can.c ****     /* USER CODE BEGIN CAN1_MspInit 0 */
  68:Core/Src/can.c **** 
  69:Core/Src/can.c ****     /* USER CODE END CAN1_MspInit 0 */
  70:Core/Src/can.c ****     /* CAN1 clock enable */
  71:Core/Src/can.c ****     __HAL_RCC_CAN1_CLK_ENABLE();
  72:Core/Src/can.c **** 
  73:Core/Src/can.c ****     __HAL_RCC_GPIOD_CLK_ENABLE();
  74:Core/Src/can.c ****     /**CAN1 GPIO Configuration
  75:Core/Src/can.c ****     PD0     ------> CAN1_RX
  76:Core/Src/can.c ****     PD1     ------> CAN1_TX
  77:Core/Src/can.c ****     */
  78:Core/Src/can.c ****     GPIO_InitStruct.Pin = GPIO_PIN_0 | GPIO_PIN_1;
  79:Core/Src/can.c ****     GPIO_InitStruct.Mode = GPIO_MODE_AF_PP;
  80:Core/Src/can.c ****     GPIO_InitStruct.Pull = GPIO_NOPULL;
  81:Core/Src/can.c ****     GPIO_InitStruct.Speed = GPIO_SPEED_FREQ_VERY_HIGH;
  82:Core/Src/can.c ****     GPIO_InitStruct.Alternate = GPIO_AF9_CAN1;
  83:Core/Src/can.c ****     HAL_GPIO_Init(GPIOD, &GPIO_InitStruct);
  84:Core/Src/can.c **** 
  85:Core/Src/can.c ****     /* CAN1 interrupt Init */
  86:Core/Src/can.c ****     HAL_NVIC_SetPriority(CAN1_RX0_IRQn, 0, 0);
  87:Core/Src/can.c ****     HAL_NVIC_EnableIRQ(CAN1_RX0_IRQn);
  88:Core/Src/can.c ****     /* USER CODE BEGIN CAN1_MspInit 1 */
  89:Core/Src/can.c **** 
  90:Core/Src/can.c ****     /* USER CODE END CAN1_MspInit 1 */
ARM GAS  /tmp/ccwUoDQO.s 			page 5


  91:Core/Src/can.c ****   }
  92:Core/Src/can.c **** }
 141              		.loc 1 92 1 view .LVU38
 142 0018 09B0     		add	sp, sp, #36
 143              	.LCFI3:
 144              		.cfi_remember_state
 145              		.cfi_def_cfa_offset 4
 146              		@ sp needed
 147 001a 5DF804FB 		ldr	pc, [sp], #4
 148              	.LVL4:
 149              	.L10:
 150              	.LCFI4:
 151              		.cfi_restore_state
  71:Core/Src/can.c **** 
 152              		.loc 1 71 5 is_stmt 1 view .LVU39
 153              	.LBB2:
  71:Core/Src/can.c **** 
 154              		.loc 1 71 5 view .LVU40
  71:Core/Src/can.c **** 
 155              		.loc 1 71 5 view .LVU41
 156 001e 03F5EA33 		add	r3, r3, #119808
 157 0022 1A6C     		ldr	r2, [r3, #64]
 158 0024 42F00072 		orr	r2, r2, #33554432
 159 0028 1A64     		str	r2, [r3, #64]
  71:Core/Src/can.c **** 
 160              		.loc 1 71 5 view .LVU42
 161 002a 1A6C     		ldr	r2, [r3, #64]
 162 002c 02F00072 		and	r2, r2, #33554432
 163 0030 0192     		str	r2, [sp, #4]
  71:Core/Src/can.c **** 
 164              		.loc 1 71 5 view .LVU43
 165 0032 019A     		ldr	r2, [sp, #4]
 166              	.LBE2:
  71:Core/Src/can.c **** 
 167              		.loc 1 71 5 view .LVU44
  73:Core/Src/can.c ****     /**CAN1 GPIO Configuration
 168              		.loc 1 73 5 view .LVU45
 169              	.LBB3:
  73:Core/Src/can.c ****     /**CAN1 GPIO Configuration
 170              		.loc 1 73 5 view .LVU46
  73:Core/Src/can.c ****     /**CAN1 GPIO Configuration
 171              		.loc 1 73 5 view .LVU47
 172 0034 1A6B     		ldr	r2, [r3, #48]
 173 0036 42F00802 		orr	r2, r2, #8
 174 003a 1A63     		str	r2, [r3, #48]
  73:Core/Src/can.c ****     /**CAN1 GPIO Configuration
 175              		.loc 1 73 5 view .LVU48
 176 003c 1B6B     		ldr	r3, [r3, #48]
 177 003e 03F00803 		and	r3, r3, #8
 178 0042 0293     		str	r3, [sp, #8]
  73:Core/Src/can.c ****     /**CAN1 GPIO Configuration
 179              		.loc 1 73 5 view .LVU49
 180 0044 029B     		ldr	r3, [sp, #8]
 181              	.LBE3:
  73:Core/Src/can.c ****     /**CAN1 GPIO Configuration
 182              		.loc 1 73 5 view .LVU50
  78:Core/Src/can.c ****     GPIO_InitStruct.Mode = GPIO_MODE_AF_PP;
ARM GAS  /tmp/ccwUoDQO.s 			page 6


 183              		.loc 1 78 5 view .LVU51
  78:Core/Src/can.c ****     GPIO_InitStruct.Mode = GPIO_MODE_AF_PP;
 184              		.loc 1 78 25 is_stmt 0 view .LVU52
 185 0046 0323     		movs	r3, #3
 186 0048 0393     		str	r3, [sp, #12]
  79:Core/Src/can.c ****     GPIO_InitStruct.Pull = GPIO_NOPULL;
 187              		.loc 1 79 5 is_stmt 1 view .LVU53
  79:Core/Src/can.c ****     GPIO_InitStruct.Pull = GPIO_NOPULL;
 188              		.loc 1 79 26 is_stmt 0 view .LVU54
 189 004a 0222     		movs	r2, #2
 190 004c 0492     		str	r2, [sp, #16]
  80:Core/Src/can.c ****     GPIO_InitStruct.Speed = GPIO_SPEED_FREQ_VERY_HIGH;
 191              		.loc 1 80 5 is_stmt 1 view .LVU55
  81:Core/Src/can.c ****     GPIO_InitStruct.Alternate = GPIO_AF9_CAN1;
 192              		.loc 1 81 5 view .LVU56
  81:Core/Src/can.c ****     GPIO_InitStruct.Alternate = GPIO_AF9_CAN1;
 193              		.loc 1 81 27 is_stmt 0 view .LVU57
 194 004e 0693     		str	r3, [sp, #24]
  82:Core/Src/can.c ****     HAL_GPIO_Init(GPIOD, &GPIO_InitStruct);
 195              		.loc 1 82 5 is_stmt 1 view .LVU58
  82:Core/Src/can.c ****     HAL_GPIO_Init(GPIOD, &GPIO_InitStruct);
 196              		.loc 1 82 31 is_stmt 0 view .LVU59
 197 0050 0923     		movs	r3, #9
 198 0052 0793     		str	r3, [sp, #28]
  83:Core/Src/can.c **** 
 199              		.loc 1 83 5 is_stmt 1 view .LVU60
 200 0054 03A9     		add	r1, sp, #12
 201 0056 0748     		ldr	r0, .L11+4
 202              	.LVL5:
  83:Core/Src/can.c **** 
 203              		.loc 1 83 5 is_stmt 0 view .LVU61
 204 0058 FFF7FEFF 		bl	HAL_GPIO_Init
 205              	.LVL6:
  86:Core/Src/can.c ****     HAL_NVIC_EnableIRQ(CAN1_RX0_IRQn);
 206              		.loc 1 86 5 is_stmt 1 view .LVU62
 207 005c 0022     		movs	r2, #0
 208 005e 1146     		mov	r1, r2
 209 0060 1420     		movs	r0, #20
 210 0062 FFF7FEFF 		bl	HAL_NVIC_SetPriority
 211              	.LVL7:
  87:Core/Src/can.c ****     /* USER CODE BEGIN CAN1_MspInit 1 */
 212              		.loc 1 87 5 view .LVU63
 213 0066 1420     		movs	r0, #20
 214 0068 FFF7FEFF 		bl	HAL_NVIC_EnableIRQ
 215              	.LVL8:
 216              		.loc 1 92 1 is_stmt 0 view .LVU64
 217 006c D4E7     		b	.L7
 218              	.L12:
 219 006e 00BF     		.align	2
 220              	.L11:
 221 0070 00640040 		.word	1073767424
 222 0074 000C0240 		.word	1073875968
 223              		.cfi_endproc
 224              	.LFE145:
 226              		.section	.text.HAL_CAN_MspDeInit,"ax",%progbits
 227              		.align	1
 228              		.global	HAL_CAN_MspDeInit
ARM GAS  /tmp/ccwUoDQO.s 			page 7


 229              		.syntax unified
 230              		.thumb
 231              		.thumb_func
 233              	HAL_CAN_MspDeInit:
 234              	.LVL9:
 235              	.LFB146:
  93:Core/Src/can.c **** 
  94:Core/Src/can.c **** void HAL_CAN_MspDeInit(CAN_HandleTypeDef *canHandle) {
 236              		.loc 1 94 54 is_stmt 1 view -0
 237              		.cfi_startproc
 238              		@ args = 0, pretend = 0, frame = 0
 239              		@ frame_needed = 0, uses_anonymous_args = 0
 240              		.loc 1 94 54 is_stmt 0 view .LVU66
 241 0000 08B5     		push	{r3, lr}
 242              	.LCFI5:
 243              		.cfi_def_cfa_offset 8
 244              		.cfi_offset 3, -8
 245              		.cfi_offset 14, -4
  95:Core/Src/can.c **** 
  96:Core/Src/can.c ****   if (canHandle->Instance == CAN1) {
 246              		.loc 1 96 3 is_stmt 1 view .LVU67
 247              		.loc 1 96 16 is_stmt 0 view .LVU68
 248 0002 0268     		ldr	r2, [r0]
 249              		.loc 1 96 6 view .LVU69
 250 0004 084B     		ldr	r3, .L17
 251 0006 9A42     		cmp	r2, r3
 252 0008 00D0     		beq	.L16
 253              	.LVL10:
 254              	.L13:
  97:Core/Src/can.c ****     /* USER CODE BEGIN CAN1_MspDeInit 0 */
  98:Core/Src/can.c **** 
  99:Core/Src/can.c ****     /* USER CODE END CAN1_MspDeInit 0 */
 100:Core/Src/can.c ****     /* Peripheral clock disable */
 101:Core/Src/can.c ****     __HAL_RCC_CAN1_CLK_DISABLE();
 102:Core/Src/can.c **** 
 103:Core/Src/can.c ****     /**CAN1 GPIO Configuration
 104:Core/Src/can.c ****     PD0     ------> CAN1_RX
 105:Core/Src/can.c ****     PD1     ------> CAN1_TX
 106:Core/Src/can.c ****     */
 107:Core/Src/can.c ****     HAL_GPIO_DeInit(GPIOD, GPIO_PIN_0 | GPIO_PIN_1);
 108:Core/Src/can.c **** 
 109:Core/Src/can.c ****     /* CAN1 interrupt Deinit */
 110:Core/Src/can.c ****     HAL_NVIC_DisableIRQ(CAN1_RX0_IRQn);
 111:Core/Src/can.c ****     /* USER CODE BEGIN CAN1_MspDeInit 1 */
 112:Core/Src/can.c **** 
 113:Core/Src/can.c ****     /* USER CODE END CAN1_MspDeInit 1 */
 114:Core/Src/can.c ****   }
 115:Core/Src/can.c **** }
 255              		.loc 1 115 1 view .LVU70
 256 000a 08BD     		pop	{r3, pc}
 257              	.LVL11:
 258              	.L16:
 101:Core/Src/can.c **** 
 259              		.loc 1 101 5 is_stmt 1 view .LVU71
 260 000c 074A     		ldr	r2, .L17+4
 261 000e 136C     		ldr	r3, [r2, #64]
 262 0010 23F00073 		bic	r3, r3, #33554432
ARM GAS  /tmp/ccwUoDQO.s 			page 8


 263 0014 1364     		str	r3, [r2, #64]
 107:Core/Src/can.c **** 
 264              		.loc 1 107 5 view .LVU72
 265 0016 0321     		movs	r1, #3
 266 0018 0548     		ldr	r0, .L17+8
 267              	.LVL12:
 107:Core/Src/can.c **** 
 268              		.loc 1 107 5 is_stmt 0 view .LVU73
 269 001a FFF7FEFF 		bl	HAL_GPIO_DeInit
 270              	.LVL13:
 110:Core/Src/can.c ****     /* USER CODE BEGIN CAN1_MspDeInit 1 */
 271              		.loc 1 110 5 is_stmt 1 view .LVU74
 272 001e 1420     		movs	r0, #20
 273 0020 FFF7FEFF 		bl	HAL_NVIC_DisableIRQ
 274              	.LVL14:
 275              		.loc 1 115 1 is_stmt 0 view .LVU75
 276 0024 F1E7     		b	.L13
 277              	.L18:
 278 0026 00BF     		.align	2
 279              	.L17:
 280 0028 00640040 		.word	1073767424
 281 002c 00380240 		.word	1073887232
 282 0030 000C0240 		.word	1073875968
 283              		.cfi_endproc
 284              	.LFE146:
 286              		.section	.text.CAN_Init_Interrupts,"ax",%progbits
 287              		.align	1
 288              		.global	CAN_Init_Interrupts
 289              		.syntax unified
 290              		.thumb
 291              		.thumb_func
 293              	CAN_Init_Interrupts:
 294              	.LFB147:
 116:Core/Src/can.c **** 
 117:Core/Src/can.c **** /* USER CODE BEGIN 1 */
 118:Core/Src/can.c **** void CAN_Init_Interrupts() {
 295              		.loc 1 118 28 is_stmt 1 view -0
 296              		.cfi_startproc
 297              		@ args = 0, pretend = 0, frame = 40
 298              		@ frame_needed = 0, uses_anonymous_args = 0
 299 0000 10B5     		push	{r4, lr}
 300              	.LCFI6:
 301              		.cfi_def_cfa_offset 8
 302              		.cfi_offset 4, -8
 303              		.cfi_offset 14, -4
 304 0002 8AB0     		sub	sp, sp, #40
 305              	.LCFI7:
 306              		.cfi_def_cfa_offset 48
 119:Core/Src/can.c ****   CAN_FilterTypeDef canFil;
 307              		.loc 1 119 3 view .LVU77
 120:Core/Src/can.c **** 
 121:Core/Src/can.c ****   canFil.FilterBank = 0;
 308              		.loc 1 121 3 view .LVU78
 309              		.loc 1 121 21 is_stmt 0 view .LVU79
 310 0004 0023     		movs	r3, #0
 311 0006 0593     		str	r3, [sp, #20]
 122:Core/Src/can.c ****   canFil.FilterMode = CAN_FILTERMODE_IDMASK;
ARM GAS  /tmp/ccwUoDQO.s 			page 9


 312              		.loc 1 122 3 is_stmt 1 view .LVU80
 313              		.loc 1 122 21 is_stmt 0 view .LVU81
 314 0008 0693     		str	r3, [sp, #24]
 123:Core/Src/can.c ****   canFil.FilterFIFOAssignment = CAN_RX_FIFO0;
 315              		.loc 1 123 3 is_stmt 1 view .LVU82
 316              		.loc 1 123 31 is_stmt 0 view .LVU83
 317 000a 0493     		str	r3, [sp, #16]
 124:Core/Src/can.c ****   canFil.FilterIdHigh = 0;
 318              		.loc 1 124 3 is_stmt 1 view .LVU84
 319              		.loc 1 124 23 is_stmt 0 view .LVU85
 320 000c 0093     		str	r3, [sp]
 125:Core/Src/can.c ****   canFil.FilterIdLow = 0;
 321              		.loc 1 125 3 is_stmt 1 view .LVU86
 322              		.loc 1 125 22 is_stmt 0 view .LVU87
 323 000e 0193     		str	r3, [sp, #4]
 126:Core/Src/can.c ****   canFil.FilterMaskIdHigh = 0;
 324              		.loc 1 126 3 is_stmt 1 view .LVU88
 325              		.loc 1 126 27 is_stmt 0 view .LVU89
 326 0010 0293     		str	r3, [sp, #8]
 127:Core/Src/can.c ****   canFil.FilterMaskIdLow = 0;
 327              		.loc 1 127 3 is_stmt 1 view .LVU90
 328              		.loc 1 127 26 is_stmt 0 view .LVU91
 329 0012 0393     		str	r3, [sp, #12]
 128:Core/Src/can.c ****   canFil.FilterScale = CAN_FILTERSCALE_32BIT;
 330              		.loc 1 128 3 is_stmt 1 view .LVU92
 331              		.loc 1 128 22 is_stmt 0 view .LVU93
 332 0014 0123     		movs	r3, #1
 333 0016 0793     		str	r3, [sp, #28]
 129:Core/Src/can.c ****   canFil.FilterActivation = ENABLE;
 334              		.loc 1 129 3 is_stmt 1 view .LVU94
 335              		.loc 1 129 27 is_stmt 0 view .LVU95
 336 0018 0893     		str	r3, [sp, #32]
 130:Core/Src/can.c ****   canFil.SlaveStartFilterBank = 14;
 337              		.loc 1 130 3 is_stmt 1 view .LVU96
 338              		.loc 1 130 31 is_stmt 0 view .LVU97
 339 001a 0E23     		movs	r3, #14
 340 001c 0993     		str	r3, [sp, #36]
 131:Core/Src/can.c **** 
 132:Core/Src/can.c ****   HAL_CAN_ConfigFilter(&hcan1, &canFil); // Initialize CAN Filter
 341              		.loc 1 132 3 is_stmt 1 view .LVU98
 342 001e 094C     		ldr	r4, .L23
 343 0020 6946     		mov	r1, sp
 344 0022 2046     		mov	r0, r4
 345 0024 FFF7FEFF 		bl	HAL_CAN_ConfigFilter
 346              	.LVL15:
 133:Core/Src/can.c ****   HAL_CAN_Start(&hcan1);                 // Initialize CAN Bus
 347              		.loc 1 133 3 view .LVU99
 348 0028 2046     		mov	r0, r4
 349 002a FFF7FEFF 		bl	HAL_CAN_Start
 350              	.LVL16:
 134:Core/Src/can.c ****   if (HAL_CAN_ActivateNotification(&hcan1, CAN_IT_RX_FIFO0_MSG_PENDING)) {
 351              		.loc 1 134 3 view .LVU100
 352              		.loc 1 134 7 is_stmt 0 view .LVU101
 353 002e 0221     		movs	r1, #2
 354 0030 2046     		mov	r0, r4
 355 0032 FFF7FEFF 		bl	HAL_CAN_ActivateNotification
 356              	.LVL17:
ARM GAS  /tmp/ccwUoDQO.s 			page 10


 357              		.loc 1 134 6 discriminator 1 view .LVU102
 358 0036 08B9     		cbnz	r0, .L22
 359              	.L19:
 135:Core/Src/can.c ****     Error_Handler();
 136:Core/Src/can.c ****   }
 137:Core/Src/can.c **** }
 360              		.loc 1 137 1 view .LVU103
 361 0038 0AB0     		add	sp, sp, #40
 362              	.LCFI8:
 363              		.cfi_remember_state
 364              		.cfi_def_cfa_offset 8
 365              		@ sp needed
 366 003a 10BD     		pop	{r4, pc}
 367              	.L22:
 368              	.LCFI9:
 369              		.cfi_restore_state
 135:Core/Src/can.c ****     Error_Handler();
 370              		.loc 1 135 5 is_stmt 1 view .LVU104
 371 003c FFF7FEFF 		bl	Error_Handler
 372              	.LVL18:
 373              		.loc 1 137 1 is_stmt 0 view .LVU105
 374 0040 FAE7     		b	.L19
 375              	.L24:
 376 0042 00BF     		.align	2
 377              	.L23:
 378 0044 00000000 		.word	hcan1
 379              		.cfi_endproc
 380              	.LFE147:
 382              		.section	.text.CAN_Send_Message,"ax",%progbits
 383              		.align	1
 384              		.global	CAN_Send_Message
 385              		.syntax unified
 386              		.thumb
 387              		.thumb_func
 389              	CAN_Send_Message:
 390              	.LVL19:
 391              	.LFB148:
 138:Core/Src/can.c **** 
 139:Core/Src/can.c **** void CAN_Send_Message(uint16_t address, uint8_t *message) {
 392              		.loc 1 139 59 is_stmt 1 view -0
 393              		.cfi_startproc
 394              		@ args = 0, pretend = 0, frame = 32
 395              		@ frame_needed = 0, uses_anonymous_args = 0
 396              		.loc 1 139 59 is_stmt 0 view .LVU107
 397 0000 00B5     		push	{lr}
 398              	.LCFI10:
 399              		.cfi_def_cfa_offset 4
 400              		.cfi_offset 14, -4
 401 0002 89B0     		sub	sp, sp, #36
 402              	.LCFI11:
 403              		.cfi_def_cfa_offset 40
 404 0004 0A46     		mov	r2, r1
 140:Core/Src/can.c ****   CAN_TxHeaderTypeDef txHeader;
 405              		.loc 1 140 3 is_stmt 1 view .LVU108
 141:Core/Src/can.c ****   uint32_t canMailbox;
 406              		.loc 1 141 3 view .LVU109
 142:Core/Src/can.c **** 
ARM GAS  /tmp/ccwUoDQO.s 			page 11


 143:Core/Src/can.c ****   txHeader.DLC = 8; // Number of bytes to be transmitted max- 8
 407              		.loc 1 143 3 view .LVU110
 408              		.loc 1 143 16 is_stmt 0 view .LVU111
 409 0006 0823     		movs	r3, #8
 410 0008 0693     		str	r3, [sp, #24]
 144:Core/Src/can.c ****   txHeader.IDE = CAN_ID_STD;
 411              		.loc 1 144 3 is_stmt 1 view .LVU112
 412              		.loc 1 144 16 is_stmt 0 view .LVU113
 413 000a 0023     		movs	r3, #0
 414 000c 0493     		str	r3, [sp, #16]
 145:Core/Src/can.c ****   txHeader.RTR = CAN_RTR_DATA;
 415              		.loc 1 145 3 is_stmt 1 view .LVU114
 416              		.loc 1 145 16 is_stmt 0 view .LVU115
 417 000e 0593     		str	r3, [sp, #20]
 146:Core/Src/can.c ****   txHeader.StdId = 0x00;
 418              		.loc 1 146 3 is_stmt 1 view .LVU116
 419              		.loc 1 146 18 is_stmt 0 view .LVU117
 420 0010 0293     		str	r3, [sp, #8]
 147:Core/Src/can.c ****   txHeader.ExtId = address;
 421              		.loc 1 147 3 is_stmt 1 view .LVU118
 422              		.loc 1 147 18 is_stmt 0 view .LVU119
 423 0012 0390     		str	r0, [sp, #12]
 148:Core/Src/can.c ****   txHeader.TransmitGlobalTime = DISABLE;
 424              		.loc 1 148 3 is_stmt 1 view .LVU120
 425              		.loc 1 148 31 is_stmt 0 view .LVU121
 426 0014 8DF81C30 		strb	r3, [sp, #28]
 149:Core/Src/can.c **** 
 150:Core/Src/can.c ****   HAL_CAN_AddTxMessage(&hcan1, &txHeader, message, &canMailbox);
 427              		.loc 1 150 3 is_stmt 1 view .LVU122
 428 0018 01AB     		add	r3, sp, #4
 429 001a 02A9     		add	r1, sp, #8
 430              	.LVL20:
 431              		.loc 1 150 3 is_stmt 0 view .LVU123
 432 001c 0248     		ldr	r0, .L27
 433              	.LVL21:
 434              		.loc 1 150 3 view .LVU124
 435 001e FFF7FEFF 		bl	HAL_CAN_AddTxMessage
 436              	.LVL22:
 151:Core/Src/can.c **** }
 437              		.loc 1 151 1 view .LVU125
 438 0022 09B0     		add	sp, sp, #36
 439              	.LCFI12:
 440              		.cfi_def_cfa_offset 4
 441              		@ sp needed
 442 0024 5DF804FB 		ldr	pc, [sp], #4
 443              	.L28:
 444              		.align	2
 445              	.L27:
 446 0028 00000000 		.word	hcan1
 447              		.cfi_endproc
 448              	.LFE148:
 450              		.section	.rodata.HAL_CAN_RxFifo0MsgPendingCallback.str1.4,"aMS",%progbits,1
 451              		.align	2
 452              	.LC0:
 453 0000 556E6B6E 		.ascii	"Unknown broadcasted message extended id. Cannot par"
 453      6F776E20 
 453      62726F61 
ARM GAS  /tmp/ccwUoDQO.s 			page 12


 453      64636173 
 453      74656420 
 454 0033 73652100 		.ascii	"se!\000"
 455              		.section	.text.HAL_CAN_RxFifo0MsgPendingCallback,"ax",%progbits
 456              		.align	1
 457              		.global	HAL_CAN_RxFifo0MsgPendingCallback
 458              		.syntax unified
 459              		.thumb
 460              		.thumb_func
 462              	HAL_CAN_RxFifo0MsgPendingCallback:
 463              	.LVL23:
 464              	.LFB149:
 152:Core/Src/can.c **** 
 153:Core/Src/can.c **** void HAL_CAN_RxFifo0MsgPendingCallback(CAN_HandleTypeDef *hcan1) {
 465              		.loc 1 153 66 is_stmt 1 view -0
 466              		.cfi_startproc
 467              		@ args = 0, pretend = 0, frame = 72
 468              		@ frame_needed = 0, uses_anonymous_args = 0
 469              		.loc 1 153 66 is_stmt 0 view .LVU127
 470 0000 00B5     		push	{lr}
 471              	.LCFI13:
 472              		.cfi_def_cfa_offset 4
 473              		.cfi_offset 14, -4
 474 0002 93B0     		sub	sp, sp, #76
 475              	.LCFI14:
 476              		.cfi_def_cfa_offset 80
 154:Core/Src/can.c ****   CAN_RxHeaderTypeDef rxHeader;
 477              		.loc 1 154 3 is_stmt 1 view .LVU128
 155:Core/Src/can.c **** 
 156:Core/Src/can.c ****   uint8_t buffTx[8] = {0, 0, 0, 0, 0, 0, 0, 0};
 478              		.loc 1 156 3 view .LVU129
 479              		.loc 1 156 11 is_stmt 0 view .LVU130
 480 0004 0021     		movs	r1, #0
 481 0006 0991     		str	r1, [sp, #36]
 482 0008 0A91     		str	r1, [sp, #40]
 157:Core/Src/can.c **** 
 158:Core/Src/can.c ****   if (HAL_CAN_GetRxMessage(hcan1, CAN_RX_FIFO0, &rxHeader, buffTx) != HAL_OK) {
 483              		.loc 1 158 3 is_stmt 1 view .LVU131
 484              		.loc 1 158 7 is_stmt 0 view .LVU132
 485 000a 09AB     		add	r3, sp, #36
 486 000c 0BAA     		add	r2, sp, #44
 487 000e FFF7FEFF 		bl	HAL_CAN_GetRxMessage
 488              	.LVL24:
 489              		.loc 1 158 6 discriminator 1 view .LVU133
 490 0012 A0B9     		cbnz	r0, .L41
 491              	.L30:
 159:Core/Src/can.c ****     Error_Handler();
 160:Core/Src/can.c ****   }
 161:Core/Src/can.c **** 
 162:Core/Src/can.c ****   switch (rxHeader.ExtId) {
 492              		.loc 1 162 3 is_stmt 1 view .LVU134
 493              		.loc 1 162 19 is_stmt 0 view .LVU135
 494 0014 0C9B     		ldr	r3, [sp, #48]
 495              		.loc 1 162 3 view .LVU136
 496 0016 A53B     		subs	r3, r3, #165
 497 0018 1D2B     		cmp	r3, #29
 498 001a 35D8     		bhi	.L31
ARM GAS  /tmp/ccwUoDQO.s 			page 13


 499 001c DFE803F0 		tbb	[pc, r3]
 500              	.L33:
 501 0020 1E       		.byte	(.L37-.L33)/2
 502 0021 34       		.byte	(.L31-.L33)/2
 503 0022 23       		.byte	(.L36-.L33)/2
 504 0023 34       		.byte	(.L31-.L33)/2
 505 0024 34       		.byte	(.L31-.L33)/2
 506 0025 12       		.byte	(.L35-.L33)/2
 507 0026 19       		.byte	(.L34-.L33)/2
 508 0027 34       		.byte	(.L31-.L33)/2
 509 0028 34       		.byte	(.L31-.L33)/2
 510 0029 34       		.byte	(.L31-.L33)/2
 511 002a 34       		.byte	(.L31-.L33)/2
 512 002b 34       		.byte	(.L31-.L33)/2
 513 002c 34       		.byte	(.L31-.L33)/2
 514 002d 34       		.byte	(.L31-.L33)/2
 515 002e 34       		.byte	(.L31-.L33)/2
 516 002f 34       		.byte	(.L31-.L33)/2
 517 0030 34       		.byte	(.L31-.L33)/2
 518 0031 34       		.byte	(.L31-.L33)/2
 519 0032 34       		.byte	(.L31-.L33)/2
 520 0033 34       		.byte	(.L31-.L33)/2
 521 0034 34       		.byte	(.L31-.L33)/2
 522 0035 34       		.byte	(.L31-.L33)/2
 523 0036 34       		.byte	(.L31-.L33)/2
 524 0037 34       		.byte	(.L31-.L33)/2
 525 0038 34       		.byte	(.L31-.L33)/2
 526 0039 34       		.byte	(.L31-.L33)/2
 527 003a 34       		.byte	(.L31-.L33)/2
 528 003b 34       		.byte	(.L31-.L33)/2
 529 003c 34       		.byte	(.L31-.L33)/2
 530 003d 28       		.byte	(.L32-.L33)/2
 531              		.p2align 1
 532              	.L41:
 159:Core/Src/can.c ****     Error_Handler();
 533              		.loc 1 159 5 is_stmt 1 view .LVU137
 534 003e FFF7FEFF 		bl	Error_Handler
 535              	.LVL25:
 536 0042 E7E7     		b	.L30
 537              	.L35:
 538              	.LBB4:
 163:Core/Src/can.c ****   case 0x0AA:
 164:Core/Src/can.c ****     struct Internal_States internal_states = Parse_Internal_States(buffTx);
 539              		.loc 1 164 5 view .LVU138
 540              		.loc 1 164 46 is_stmt 0 view .LVU139
 541 0044 09A9     		add	r1, sp, #36
 542 0046 03A8     		add	r0, sp, #12
 543 0048 FFF7FEFF 		bl	Parse_Internal_States
 544              	.LVL26:
 165:Core/Src/can.c ****     break;
 545              		.loc 1 165 5 is_stmt 1 view .LVU140
 546              	.L29:
 547              	.LBE4:
 166:Core/Src/can.c ****   case 0x0AB:
 167:Core/Src/can.c ****     struct Fault_Codes fault_codes = Parse_Fault_Codes(buffTx);
 168:Core/Src/can.c ****     break;
 169:Core/Src/can.c ****   case 0x0A5:
ARM GAS  /tmp/ccwUoDQO.s 			page 14


 170:Core/Src/can.c ****     struct Motor_Position_Information motor_position_information =
 171:Core/Src/can.c ****         Parse_Motor_Position_Information(buffTx);
 172:Core/Src/can.c ****     break;
 173:Core/Src/can.c ****   case 0x0A7:
 174:Core/Src/can.c ****     struct Voltage_Information voltage_information =
 175:Core/Src/can.c ****         Parse_Voltage_Information(buffTx);
 176:Core/Src/can.c ****     break;
 177:Core/Src/can.c ****   case 0x0C2:
 178:Core/Src/can.c ****     uint16_t parameter_address = 0;
 179:Core/Src/can.c ****     int16_t data = 0;
 180:Core/Src/can.c ****     Parse_Parameter_Message(buffTx, &parameter_address, &data);
 181:Core/Src/can.c ****     break;
 182:Core/Src/can.c ****   default:
 183:Core/Src/can.c ****     printf("Unknown broadcasted message extended id. Cannot parse!");
 184:Core/Src/can.c ****   }
 185:Core/Src/can.c **** }
 548              		.loc 1 185 1 is_stmt 0 view .LVU141
 549 004c 13B0     		add	sp, sp, #76
 550              	.LCFI15:
 551              		.cfi_remember_state
 552              		.cfi_def_cfa_offset 4
 553              		@ sp needed
 554 004e 5DF804FB 		ldr	pc, [sp], #4
 555              	.L34:
 556              	.LCFI16:
 557              		.cfi_restore_state
 558              	.LBB5:
 167:Core/Src/can.c ****     break;
 559              		.loc 1 167 5 is_stmt 1 view .LVU142
 167:Core/Src/can.c ****     break;
 560              		.loc 1 167 38 is_stmt 0 view .LVU143
 561 0052 09A9     		add	r1, sp, #36
 562 0054 6846     		mov	r0, sp
 563 0056 FFF7FEFF 		bl	Parse_Fault_Codes
 564              	.LVL27:
 168:Core/Src/can.c ****   case 0x0A5:
 565              		.loc 1 168 5 is_stmt 1 view .LVU144
 566 005a F7E7     		b	.L29
 567              	.L37:
 170:Core/Src/can.c ****         Parse_Motor_Position_Information(buffTx);
 568              		.loc 1 170 5 view .LVU145
 171:Core/Src/can.c ****     break;
 569              		.loc 1 171 9 is_stmt 0 view .LVU146
 570 005c 09A9     		add	r1, sp, #36
 571 005e 03A8     		add	r0, sp, #12
 572 0060 FFF7FEFF 		bl	Parse_Motor_Position_Information
 573              	.LVL28:
 172:Core/Src/can.c ****   case 0x0A7:
 574              		.loc 1 172 5 is_stmt 1 view .LVU147
 575 0064 F2E7     		b	.L29
 576              	.L36:
 174:Core/Src/can.c ****         Parse_Voltage_Information(buffTx);
 577              		.loc 1 174 5 view .LVU148
 175:Core/Src/can.c ****     break;
 578              		.loc 1 175 9 is_stmt 0 view .LVU149
 579 0066 09A9     		add	r1, sp, #36
 580 0068 03A8     		add	r0, sp, #12
ARM GAS  /tmp/ccwUoDQO.s 			page 15


 581 006a FFF7FEFF 		bl	Parse_Voltage_Information
 582              	.LVL29:
 176:Core/Src/can.c ****   case 0x0C2:
 583              		.loc 1 176 5 is_stmt 1 view .LVU150
 584 006e EDE7     		b	.L29
 585              	.L32:
 178:Core/Src/can.c ****     int16_t data = 0;
 586              		.loc 1 178 5 view .LVU151
 178:Core/Src/can.c ****     int16_t data = 0;
 587              		.loc 1 178 14 is_stmt 0 view .LVU152
 588 0070 0023     		movs	r3, #0
 589 0072 ADF80A30 		strh	r3, [sp, #10]	@ movhi
 179:Core/Src/can.c ****     Parse_Parameter_Message(buffTx, &parameter_address, &data);
 590              		.loc 1 179 5 is_stmt 1 view .LVU153
 179:Core/Src/can.c ****     Parse_Parameter_Message(buffTx, &parameter_address, &data);
 591              		.loc 1 179 13 is_stmt 0 view .LVU154
 592 0076 ADF80C30 		strh	r3, [sp, #12]	@ movhi
 180:Core/Src/can.c ****     break;
 593              		.loc 1 180 5 is_stmt 1 view .LVU155
 594 007a 03AA     		add	r2, sp, #12
 595 007c 0DF10A01 		add	r1, sp, #10
 596 0080 09A8     		add	r0, sp, #36
 597 0082 FFF7FEFF 		bl	Parse_Parameter_Message
 598              	.LVL30:
 181:Core/Src/can.c ****   default:
 599              		.loc 1 181 5 view .LVU156
 600              	.LBE5:
 601              		.loc 1 185 1 is_stmt 0 view .LVU157
 602 0086 E1E7     		b	.L29
 603              	.L31:
 604              	.LBB6:
 183:Core/Src/can.c ****   }
 605              		.loc 1 183 5 is_stmt 1 view .LVU158
 606 0088 0148     		ldr	r0, .L42
 607 008a FFF7FEFF 		bl	printf
 608              	.LVL31:
 609 008e DDE7     		b	.L29
 610              	.L43:
 611              		.align	2
 612              	.L42:
 613 0090 00000000 		.word	.LC0
 614              	.LBE6:
 615              		.cfi_endproc
 616              	.LFE149:
 618              		.global	hcan1
 619              		.section	.bss.hcan1,"aw",%nobits
 620              		.align	2
 623              	hcan1:
 624 0000 00000000 		.space	40
 624      00000000 
 624      00000000 
 624      00000000 
 624      00000000 
 625              		.text
 626              	.Letext0:
 627              		.file 2 "Drivers/CMSIS/Device/ST/STM32F7xx/Include/stm32f767xx.h"
 628              		.file 3 "/usr/lib/gcc/arm-none-eabi/13.2.1/include/stdint.h"
ARM GAS  /tmp/ccwUoDQO.s 			page 16


 629              		.file 4 "Drivers/CMSIS/Device/ST/STM32F7xx/Include/stm32f7xx.h"
 630              		.file 5 "Drivers/STM32F7xx_HAL_Driver/Inc/stm32f7xx_hal_def.h"
 631              		.file 6 "Drivers/STM32F7xx_HAL_Driver/Inc/stm32f7xx_hal_gpio.h"
 632              		.file 7 "Drivers/STM32F7xx_HAL_Driver/Inc/stm32f7xx_hal_can.h"
 633              		.file 8 "Core/Inc/inverter_broadcast.h"
 634              		.file 9 "/usr/include/newlib/stdio.h"
 635              		.file 10 "Core/Inc/inverter_command.h"
 636              		.file 11 "Drivers/STM32F7xx_HAL_Driver/Inc/stm32f7xx_hal_cortex.h"
 637              		.file 12 "Core/Inc/can.h"
 638              		.file 13 "Core/Inc/main.h"
ARM GAS  /tmp/ccwUoDQO.s 			page 17

