ARM GAS  /tmp/ccHLhFUY.s 			page 1


   1              		.cpu cortex-m7
   2              		.arch armv7e-m
   3              		.fpu fpv5-d16
   4              		.eabi_attribute 28, 1
   5              		.eabi_attribute 20, 1
   6              		.eabi_attribute 21, 1
   7              		.eabi_attribute 23, 3
   8              		.eabi_attribute 24, 1
   9              		.eabi_attribute 25, 1
  10              		.eabi_attribute 26, 1
  11              		.eabi_attribute 30, 1
  12              		.eabi_attribute 34, 1
  13              		.eabi_attribute 18, 4
  14              		.file	"inverter_command.c"
  15              		.text
  16              	.Ltext0:
  17              		.cfi_sections	.debug_frame
  18              		.file 1 "Core/Src/inverter_command.c"
  19              		.section	.text.Send_Command,"ax",%progbits
  20              		.align	1
  21              		.global	Send_Command
  22              		.syntax unified
  23              		.thumb
  24              		.thumb_func
  26              	Send_Command:
  27              	.LVL0:
  28              	.LFB141:
   1:Core/Src/inverter_command.c **** #include "inverter_command.h"
   2:Core/Src/inverter_command.c **** #include "can.h"
   3:Core/Src/inverter_command.c **** 
   4:Core/Src/inverter_command.c **** void Send_Command(int16_t torque_command, int16_t speed_command,
   5:Core/Src/inverter_command.c ****                   bool direction_command, bool inverter_enable,
   6:Core/Src/inverter_command.c ****                   bool inverter_discharge, bool speed_mode_enable,
   7:Core/Src/inverter_command.c ****                   int16_t commanded_torque_limit) {
  29              		.loc 1 7 51 view -0
  30              		.cfi_startproc
  31              		@ args = 12, pretend = 0, frame = 8
  32              		@ frame_needed = 0, uses_anonymous_args = 0
  33              		.loc 1 7 51 is_stmt 0 view .LVU1
  34 0000 10B5     		push	{r4, lr}
  35              	.LCFI0:
  36              		.cfi_def_cfa_offset 8
  37              		.cfi_offset 4, -8
  38              		.cfi_offset 14, -4
  39 0002 82B0     		sub	sp, sp, #8
  40              	.LCFI1:
  41              		.cfi_def_cfa_offset 16
  42 0004 BDF918C0 		ldrsh	ip, [sp, #24]
   8:Core/Src/inverter_command.c **** 
   9:Core/Src/inverter_command.c ****   uint8_t constructed_message[8] = {0};
  43              		.loc 1 9 3 is_stmt 1 view .LVU2
  44              		.loc 1 9 11 is_stmt 0 view .LVU3
  45 0008 0024     		movs	r4, #0
  46 000a 0094     		str	r4, [sp]
  47 000c 0194     		str	r4, [sp, #4]
  10:Core/Src/inverter_command.c **** 
  11:Core/Src/inverter_command.c ****   constructed_message[0] = torque_command & ((1 << 8) - 1);
ARM GAS  /tmp/ccHLhFUY.s 			page 2


  48              		.loc 1 11 3 is_stmt 1 view .LVU4
  49              		.loc 1 11 26 is_stmt 0 view .LVU5
  50 000e 8DF80000 		strb	r0, [sp]
  12:Core/Src/inverter_command.c ****   constructed_message[1] = torque_command >> 8;
  51              		.loc 1 12 3 is_stmt 1 view .LVU6
  52              		.loc 1 12 26 is_stmt 0 view .LVU7
  53 0012 0012     		asrs	r0, r0, #8
  54              	.LVL1:
  55              		.loc 1 12 26 view .LVU8
  56 0014 8DF80100 		strb	r0, [sp, #1]
  13:Core/Src/inverter_command.c **** 
  14:Core/Src/inverter_command.c ****   constructed_message[2] = speed_command & ((1 << 8) - 1);
  57              		.loc 1 14 3 is_stmt 1 view .LVU9
  58              		.loc 1 14 26 is_stmt 0 view .LVU10
  59 0018 8DF80210 		strb	r1, [sp, #2]
  15:Core/Src/inverter_command.c ****   constructed_message[3] = speed_command >> 8;
  60              		.loc 1 15 3 is_stmt 1 view .LVU11
  61              		.loc 1 15 26 is_stmt 0 view .LVU12
  62 001c 0912     		asrs	r1, r1, #8
  63              	.LVL2:
  64              		.loc 1 15 26 view .LVU13
  65 001e 8DF80310 		strb	r1, [sp, #3]
  16:Core/Src/inverter_command.c **** 
  17:Core/Src/inverter_command.c ****   constructed_message[4] = (uint8_t)direction_command;
  66              		.loc 1 17 3 is_stmt 1 view .LVU14
  67              		.loc 1 17 26 is_stmt 0 view .LVU15
  68 0022 8DF80420 		strb	r2, [sp, #4]
  18:Core/Src/inverter_command.c **** 
  19:Core/Src/inverter_command.c ****   constructed_message[5] |= inverter_enable;
  69              		.loc 1 19 3 is_stmt 1 view .LVU16
  70              		.loc 1 19 26 is_stmt 0 view .LVU17
  71 0026 8DF80530 		strb	r3, [sp, #5]
  20:Core/Src/inverter_command.c ****   constructed_message[5] |= ((uint8_t)inverter_discharge) << 1;
  72              		.loc 1 20 3 is_stmt 1 view .LVU18
  73              		.loc 1 20 26 is_stmt 0 view .LVU19
  74 002a 9DF81020 		ldrb	r2, [sp, #16]	@ zero_extendqisi2
  75              	.LVL3:
  76              		.loc 1 20 26 view .LVU20
  77 002e 43EA4203 		orr	r3, r3, r2, lsl #1
  78              	.LVL4:
  79              		.loc 1 20 26 view .LVU21
  80 0032 DBB2     		uxtb	r3, r3
  81 0034 8DF80530 		strb	r3, [sp, #5]
  82              	.LVL5:
  21:Core/Src/inverter_command.c ****   constructed_message[5] |= ((uint8_t)speed_mode_enable) << 2;
  83              		.loc 1 21 3 is_stmt 1 view .LVU22
  84              		.loc 1 21 26 is_stmt 0 view .LVU23
  85 0038 9DF81420 		ldrb	r2, [sp, #20]	@ zero_extendqisi2
  86 003c 43EA8203 		orr	r3, r3, r2, lsl #2
  87 0040 8DF80530 		strb	r3, [sp, #5]
  22:Core/Src/inverter_command.c **** 
  23:Core/Src/inverter_command.c ****   constructed_message[6] = commanded_torque_limit & ((1 << 8) - 1);
  88              		.loc 1 23 3 is_stmt 1 view .LVU24
  89              		.loc 1 23 26 is_stmt 0 view .LVU25
  90 0044 8DF806C0 		strb	ip, [sp, #6]
  24:Core/Src/inverter_command.c ****   constructed_message[7] = commanded_torque_limit >> 8;
  91              		.loc 1 24 3 is_stmt 1 view .LVU26
ARM GAS  /tmp/ccHLhFUY.s 			page 3


  92              		.loc 1 24 26 is_stmt 0 view .LVU27
  93 0048 4FEA2C2C 		asr	ip, ip, #8
  94 004c 8DF807C0 		strb	ip, [sp, #7]
  25:Core/Src/inverter_command.c **** 
  26:Core/Src/inverter_command.c ****   CAN_Send_Message(0x0C0, constructed_message);
  95              		.loc 1 26 3 is_stmt 1 view .LVU28
  96 0050 6946     		mov	r1, sp
  97 0052 C020     		movs	r0, #192
  98 0054 FFF7FEFF 		bl	CAN_Send_Message
  99              	.LVL6:
  27:Core/Src/inverter_command.c **** }
 100              		.loc 1 27 1 is_stmt 0 view .LVU29
 101 0058 02B0     		add	sp, sp, #8
 102              	.LCFI2:
 103              		.cfi_def_cfa_offset 8
 104              		@ sp needed
 105 005a 10BD     		pop	{r4, pc}
 106              		.loc 1 27 1 view .LVU30
 107              		.cfi_endproc
 108              	.LFE141:
 110              		.section	.text.Send_Parameter,"ax",%progbits
 111              		.align	1
 112              		.global	Send_Parameter
 113              		.syntax unified
 114              		.thumb
 115              		.thumb_func
 117              	Send_Parameter:
 118              	.LVL7:
 119              	.LFB142:
  28:Core/Src/inverter_command.c **** 
  29:Core/Src/inverter_command.c **** /*
  30:Core/Src/inverter_command.c ****  * Send a parameter message
  31:Core/Src/inverter_command.c ****  *
  32:Core/Src/inverter_command.c ****  * page 38 of CAN Protocol document
  33:Core/Src/inverter_command.c ****  */
  34:Core/Src/inverter_command.c **** void Send_Parameter(uint16_t parameter_address, bool rw, int16_t data) {
 120              		.loc 1 34 72 is_stmt 1 view -0
 121              		.cfi_startproc
 122              		@ args = 0, pretend = 0, frame = 8
 123              		@ frame_needed = 0, uses_anonymous_args = 0
 124              		.loc 1 34 72 is_stmt 0 view .LVU32
 125 0000 00B5     		push	{lr}
 126              	.LCFI3:
 127              		.cfi_def_cfa_offset 4
 128              		.cfi_offset 14, -4
 129 0002 83B0     		sub	sp, sp, #12
 130              	.LCFI4:
 131              		.cfi_def_cfa_offset 16
  35:Core/Src/inverter_command.c ****   uint8_t constructed_message[8] = {0};
 132              		.loc 1 35 3 is_stmt 1 view .LVU33
 133              		.loc 1 35 11 is_stmt 0 view .LVU34
 134 0004 0023     		movs	r3, #0
 135 0006 0093     		str	r3, [sp]
 136 0008 0193     		str	r3, [sp, #4]
  36:Core/Src/inverter_command.c **** 
  37:Core/Src/inverter_command.c ****   constructed_message[0] = parameter_address & ((1 << 8) - 1);
 137              		.loc 1 37 3 is_stmt 1 view .LVU35
ARM GAS  /tmp/ccHLhFUY.s 			page 4


 138              		.loc 1 37 26 is_stmt 0 view .LVU36
 139 000a 8DF80000 		strb	r0, [sp]
  38:Core/Src/inverter_command.c ****   constructed_message[1] = parameter_address >> 8;
 140              		.loc 1 38 3 is_stmt 1 view .LVU37
 141              		.loc 1 38 26 is_stmt 0 view .LVU38
 142 000e 000A     		lsrs	r0, r0, #8
 143              	.LVL8:
 144              		.loc 1 38 26 view .LVU39
 145 0010 8DF80100 		strb	r0, [sp, #1]
  39:Core/Src/inverter_command.c **** 
  40:Core/Src/inverter_command.c ****   constructed_message[2] = (uint8_t)rw;
 146              		.loc 1 40 3 is_stmt 1 view .LVU40
 147              		.loc 1 40 26 is_stmt 0 view .LVU41
 148 0014 8DF80210 		strb	r1, [sp, #2]
  41:Core/Src/inverter_command.c **** 
  42:Core/Src/inverter_command.c ****   constructed_message[4] = data & ((1 << 8) - 1);
 149              		.loc 1 42 3 is_stmt 1 view .LVU42
 150              		.loc 1 42 26 is_stmt 0 view .LVU43
 151 0018 8DF80420 		strb	r2, [sp, #4]
  43:Core/Src/inverter_command.c ****   constructed_message[5] = data >> 8;
 152              		.loc 1 43 3 is_stmt 1 view .LVU44
 153              		.loc 1 43 26 is_stmt 0 view .LVU45
 154 001c 1212     		asrs	r2, r2, #8
 155              	.LVL9:
 156              		.loc 1 43 26 view .LVU46
 157 001e 8DF80520 		strb	r2, [sp, #5]
  44:Core/Src/inverter_command.c **** 
  45:Core/Src/inverter_command.c ****   CAN_Send_Message(0x0C1, constructed_message);
 158              		.loc 1 45 3 is_stmt 1 view .LVU47
 159 0022 6946     		mov	r1, sp
 160              	.LVL10:
 161              		.loc 1 45 3 is_stmt 0 view .LVU48
 162 0024 C120     		movs	r0, #193
 163 0026 FFF7FEFF 		bl	CAN_Send_Message
 164              	.LVL11:
  46:Core/Src/inverter_command.c **** }
 165              		.loc 1 46 1 view .LVU49
 166 002a 03B0     		add	sp, sp, #12
 167              	.LCFI5:
 168              		.cfi_def_cfa_offset 4
 169              		@ sp needed
 170 002c 5DF804FB 		ldr	pc, [sp], #4
 171              		.cfi_endproc
 172              	.LFE142:
 174              		.section	.text.Parse_Parameter_Message,"ax",%progbits
 175              		.align	1
 176              		.global	Parse_Parameter_Message
 177              		.syntax unified
 178              		.thumb
 179              		.thumb_func
 181              	Parse_Parameter_Message:
 182              	.LVL12:
 183              	.LFB143:
  47:Core/Src/inverter_command.c **** 
  48:Core/Src/inverter_command.c **** void Parse_Parameter_Message(uint8_t *arr, uint16_t *parameter_address,
  49:Core/Src/inverter_command.c ****                              int16_t *data) {
 184              		.loc 1 49 45 is_stmt 1 view -0
ARM GAS  /tmp/ccHLhFUY.s 			page 5


 185              		.cfi_startproc
 186              		@ args = 0, pretend = 0, frame = 0
 187              		@ frame_needed = 0, uses_anonymous_args = 0
 188              		@ link register save eliminated.
  50:Core/Src/inverter_command.c ****   *parameter_address = (uint16_t)arr[0] | (((uint16_t)arr[1]) << 8);
 189              		.loc 1 50 3 view .LVU51
 190              		.loc 1 50 37 is_stmt 0 view .LVU52
 191 0000 0378     		ldrb	r3, [r0]	@ zero_extendqisi2
 192              		.loc 1 50 58 view .LVU53
 193 0002 90F801C0 		ldrb	ip, [r0, #1]	@ zero_extendqisi2
 194              		.loc 1 50 41 view .LVU54
 195 0006 43EA0C23 		orr	r3, r3, ip, lsl #8
 196              		.loc 1 50 22 view .LVU55
 197 000a 0B80     		strh	r3, [r1]	@ movhi
  51:Core/Src/inverter_command.c **** 
  52:Core/Src/inverter_command.c ****   *data = (int16_t)arr[1] | ((int16_t)arr[1] << 8);
 198              		.loc 1 52 3 is_stmt 1 view .LVU56
 199              		.loc 1 52 23 is_stmt 0 view .LVU57
 200 000c 4378     		ldrb	r3, [r0, #1]	@ zero_extendqisi2
 201              		.loc 1 52 27 view .LVU58
 202 000e 03EB0323 		add	r3, r3, r3, lsl #8
 203              		.loc 1 52 9 view .LVU59
 204 0012 1380     		strh	r3, [r2]	@ movhi
  53:Core/Src/inverter_command.c **** }
 205              		.loc 1 53 1 view .LVU60
 206 0014 7047     		bx	lr
 207              		.cfi_endproc
 208              	.LFE143:
 210              		.text
 211              	.Letext0:
 212              		.file 2 "/usr/lib/gcc/arm-none-eabi/13.2.1/include/stdint.h"
 213              		.file 3 "Core/Inc/can.h"
ARM GAS  /tmp/ccHLhFUY.s 			page 6

